ccopy_reg
_reconstructor
p0
(cscipy.optimize.optimize
OptimizeResult
p1
c__builtin__
dict
p2
(dp3
S'status'
p4
I0
sS'nfev'
p5
I230
sS'success'
p6
I01
sS'fun'
p7
cnumpy.core.multiarray
scalar
p8
(cnumpy
dtype
p9
(S'f8'
p10
I0
I1
tp11
Rp12
(I3
S'<'
p13
NNNI-1
I-1
I0
tp14
bS'Dps\x10I\xb1\xdc?'
p15
tp16
Rp17
sS'x'
p18
cnumpy.core.multiarray
_reconstruct
p19
(cnumpy
ndarray
p20
(I0
tp21
S'b'
p22
tp23
Rp24
(I1
(I3
tp25
g12
I00
S'\x98\x9e\xb8\xe3\x12\x8f\xea\xbf\x08\x81\x80\x9d\xa5\xe8\x15@\x84\xeb\x85\xcd\xbe\xc7\x0c@'
p26
tp27
bsS'message'
p28
S'Optimization terminated successfully.'
p29
sS'nit'
p30
I120
stp31
Rp32
.