ccopy_reg
_reconstructor
p0
(cscipy.optimize.optimize
OptimizeResult
p1
c__builtin__
dict
p2
(dp3
S'status'
p4
I2
sS'success'
p5
I00
sS'jac'
p6
cnumpy.core.multiarray
_reconstruct
p7
(cnumpy
ndarray
p8
(I0
tp9
S'b'
p10
tp11
Rp12
(I1
(I3
tp13
cnumpy
dtype
p14
(S'f8'
p15
I0
I1
tp16
Rp17
(I3
S'<'
p18
NNNI-1
I-1
I0
tp19
bI00
S'b\x00Hd-\x0b\x90?\xa5\x87$\xc1O\x12p?54z\\\x95\x91\x80\xbf'
p20
tp21
bsS'nfev'
p22
I48
sS'fun'
p23
F0.4711675962015075
sS'x'
p24
g7
(g8
(I0
tp25
g10
tp26
Rp27
(I1
(I3
tp28
g17
I00
S'\x1d\x94\xaf"ya\xc4?\x86-\xb0\x1f.z\x19@\xb9\xa3\xcc\xf0\xe70\x14@'
p29
tp30
bsS'message'
p31
S'Desired error not necessarily achieved due to precision loss.'
p32
sS'nhev'
p33
I6
sS'njev'
p34
I41
stp35
Rp36
.