ccopy_reg
_reconstructor
p0
(cscipy.optimize.optimize
OptimizeResult
p1
c__builtin__
dict
p2
(dp3
S'nfev'
p4
I1332
sS'success'
p5
I01
sS'fun'
p6
cnumpy.core.multiarray
scalar
p7
(cnumpy
dtype
p8
(S'f8'
p9
I0
I1
tp10
Rp11
(I3
S'<'
p12
NNNI-1
I-1
I0
tp13
bS'\x92\x8f2\xf3\x89o\xdb?'
p14
tp15
Rp16
sS'x'
p17
cnumpy.core.multiarray
_reconstruct
p18
(cnumpy
ndarray
p19
(I0
tp20
S'b'
p21
tp22
Rp23
(I1
(I3
tp24
g11
I00
S"\x16\xf2'3\x9f=\xf5\xbfMx\xd4\x0c\x05R\x18@\xed2\xce\x8a=\xef\n@"
p25
tp26
bsS'message'
p27
S'Optimization terminated successfully.'
p28
sS'jac'
p29
g18
(g19
(I0
tp30
g21
tp31
Rp32
(I1
(I3
tp33
g11
I00
S"\x00b%\xe5\xd4\x84\xd6?\xdc<\xc0\xa8\xb4\x10M@\x98'\x1d\xb7\xd6\\:@"
p34
tp35
bsS'nit'
p36
I23
stp37
Rp38
.