ccopy_reg
_reconstructor
p0
(cscipy.optimize.optimize
OptimizeResult
p1
c__builtin__
dict
p2
(dp3
S'status'
p4
I2
sS'success'
p5
I00
sS'jac'
p6
cnumpy.core.multiarray
_reconstruct
p7
(cnumpy
ndarray
p8
(I0
tp9
S'b'
p10
tp11
Rp12
(I1
(I3
tp13
cnumpy
dtype
p14
(S'f8'
p15
I0
I1
tp16
Rp17
(I3
S'<'
p18
NNNI-1
I-1
I0
tp19
bI00
S'e\x1c\x87\xa3\xebvW\xbf\xc6\xe3>\xb5\x9azD\xbf\xa4{\x93\xfb\xcc\xf8T?'
p20
tp21
bsS'nfev'
p22
I46
sS'fun'
p23
F0.4286217776324205
sS'x'
p24
g7
(g8
(I0
tp25
g10
tp26
Rp27
(I1
(I3
tp28
g17
I00
S'Fl\xcb\xf6\xfbP\xf5\xbf\xd7t\xb7\x19A\xcf @\xfe\xc8\xf8I\xcf\x19\x12@'
p29
tp30
bsS'message'
p31
S'Desired error not necessarily achieved due to precision loss.'
p32
sS'njev'
p33
I34
stp34
Rp35
.