ccopy_reg
_reconstructor
p0
(cscipy.optimize.optimize
OptimizeResult
p1
c__builtin__
dict
p2
(dp3
S'status'
p4
I1
sS'success'
p5
I00
sS'jac'
p6
cnumpy.core.multiarray
_reconstruct
p7
(cnumpy
ndarray
p8
(I0
tp9
S'b'
p10
tp11
Rp12
(I1
(I3
tp13
cnumpy
dtype
p14
(S'f8'
p15
I0
I1
tp16
Rp17
(I3
S'<'
p18
NNNI-1
I-1
I0
tp19
bI00
S'R\xdd>6\x07\xff\xa5?\xa4:/\x84\x16\x7fP\xbf{FM\x7f*Da?'
p20
tp21
bsS'nfev'
p22
I602
sS'fun'
p23
F0.4483375558289237
sS'x'
p24
g7
(g8
(I0
tp25
g10
tp26
Rp27
(I1
(I3
tp28
g17
I00
S'G,\xf7T>\x7f\xea\xbf\x89\xac\xaa|T\x92!@\xc49T\xe1\xd8\x04\x15@'
p29
tp30
bsS'message'
p31
S'Maximum number of iterations has been exceeded.'
p32
sS'nhev'
p33
I600
sS'njev'
p34
I1201
stp35
Rp36
.