ccopy_reg
_reconstructor
p0
(cscipy.optimize.optimize
OptimizeResult
p1
c__builtin__
dict
p2
(dp3
S'status'
p4
I2
sS'success'
p5
I00
sS'jac'
p6
cnumpy.core.multiarray
_reconstruct
p7
(cnumpy
ndarray
p8
(I0
tp9
S'b'
p10
tp11
Rp12
(I1
(I3
tp13
cnumpy
dtype
p14
(S'f8'
p15
I0
I1
tp16
Rp17
(I3
S'<'
p18
NNNI-1
I-1
I0
tp19
bI00
S'\x92\x07\xfd\xe1?>y\xbf\xf2\x90\x9cg\x06zc\xbf\x96~5\xe8m\xc4s?'
p20
tp21
bsS'nfev'
p22
I101
sS'fun'
p23
F0.42862329059020365
sS'x'
p24
g7
(g8
(I0
tp25
g10
tp26
Rp27
(I1
(I3
tp28
g17
I00
S'(\xb0\x08\xe8lX\xf5\xbf\xc7\xf1\x01\xc0y\x85\x1b@\xe0\xcb\xbd\xc8\x90\x16\x0e@'
p29
tp30
bsS'message'
p31
S'Desired error not necessarily achieved due to precision loss.'
p32
sS'nhev'
p33
I56
sS'njev'
p34
I145
stp35
Rp36
.