ccopy_reg
_reconstructor
p0
(cscipy.optimize.optimize
OptimizeResult
p1
c__builtin__
dict
p2
(dp3
S'status'
p4
I2
sS'success'
p5
I00
sS'jac'
p6
cnumpy.core.multiarray
_reconstruct
p7
(cnumpy
ndarray
p8
(I0
tp9
S'b'
p10
tp11
Rp12
(I1
(I3
tp13
cnumpy
dtype
p14
(S'f8'
p15
I0
I1
tp16
Rp17
(I3
S'<'
p18
NNNI-1
I-1
I0
tp19
bI00
S'tm\xff\x9a\xb3J\x0b?\xf0\xe7\xd8e0P\x91>\xd1\xef\xc0I\xd9\xe2\x07\xbf'
p20
tp21
bsS'nfev'
p22
I60
sS'fun'
p23
cnumpy.core.multiarray
scalar
p24
(g17
S'\xb2\x178\x9a\x89n\xdb?'
p25
tp26
Rp27
sS'x'
p28
g7
(g8
(I0
tp29
g10
tp30
Rp31
(I1
(I3
tp32
g17
I00
S'-\x98\xd1\xf5\xf1Q\xf5\xbf\xe1\xa0\x18\x08\xd7\x81\x1f@@\x9b\xa3G0\x0b\x11@'
p33
tp34
bsS'message'
p35
S'Desired error not necessarily achieved due to precision loss.'
p36
sS'nhev'
p37
I33
sS'njev'
p38
I80
stp39
Rp40
.