ccopy_reg
_reconstructor
p0
(cscipy.optimize.optimize
OptimizeResult
p1
c__builtin__
dict
p2
(dp3
S'status'
p4
I2
sS'success'
p5
I00
sS'jac'
p6
cnumpy.core.multiarray
_reconstruct
p7
(cnumpy
ndarray
p8
(I0
tp9
S'b'
p10
tp11
Rp12
(I1
(I3
tp13
cnumpy
dtype
p14
(S'f8'
p15
I0
I1
tp16
Rp17
(I3
S'<'
p18
NNNI-1
I-1
I0
tp19
bI00
S'3,\xde4\x17\xb5!\xbf\x03\xb4\xb2\x91\x10\xb3\x0f\xbf)<7R\xeaf1?'
p20
tp21
bsS'nfev'
p22
I69
sS'fun'
p23
F0.4286220009362395
sS'x'
p24
g7
(g8
(I0
tp25
g10
tp26
Rp27
(I1
(I3
tp28
g17
I00
S'S\x91\xddY\x1dN\xf5\xbf\x98|\xb8\xce\xf6\xf5\x1c@\xc2\x8c\x13\xae\xa4\x8c\x0f@'
p29
tp30
bsS'message'
p31
S'Desired error not necessarily achieved due to precision loss.'
p32
sS'njev'
p33
I57
stp34
Rp35
.