ccopy_reg
_reconstructor
p0
(cscipy.optimize.optimize
OptimizeResult
p1
c__builtin__
dict
p2
(dp3
S'status'
p4
I2
sS'nhev'
p5
I28
sS'success'
p6
I00
sS'jac'
p7
cnumpy.core.multiarray
_reconstruct
p8
(cnumpy
ndarray
p9
(I0
tp10
S'b'
p11
tp12
Rp13
(I1
(I3
tp14
cnumpy
dtype
p15
(S'f8'
p16
I0
I1
tp17
Rp18
(I3
S'<'
p19
NNNI-1
I-1
I0
tp20
bI00
S'\xd0z\x9a\x03m\xb6\xf0>\xd9\xa7\xb13I\x1e"\xbfnv+=\x9a{-?'
p21
tp22
bsS'nfev'
p23
I56
sS'fun'
p24
cnumpy.core.multiarray
scalar
p25
(g18
S'CO~A\x8bn\xdb?'
p26
tp27
Rp28
sS'x'
p29
g8
(g9
(I0
tp30
g11
tp31
Rp32
(I1
(I3
tp33
g18
I00
S'\xe8\x88Fp*N\xf5\xbf\xbc}e\x16X&\x1e@\x85\xaa2{\x7f^\x10@'
p34
tp35
bsS'message'
p36
S'A bad approximation caused failure to predict improvement.'
p37
sS'hess'
p38
g8
(g9
(I0
tp39
g11
tp40
Rp41
(I1
(I3
I3
tp42
g18
I00
S'\xd5\xe8\x8b\x14\x9e}T@h\x1e\xf8\xd3uTB@\x01\xba|@2TR\xc0h\x1e\xf8\xd3uTB@\x19\xf5W\xb1\xe8x0@\x9a\x0e\xbd_\xbax@\xc0\x01\xba|@2TR\xc0\x9a\x0e\xbd_\xbax@\xc0\xcc\xbd\x0f\xd1\x0fyP@'
p43
tp44
bsS'njev'
p45
I28
sS'nit'
p46
I54
stp47
Rp48
.