ccopy_reg
_reconstructor
p0
(cscipy.optimize.optimize
OptimizeResult
p1
c__builtin__
dict
p2
(dp3
S'status'
p4
I0
sS'success'
p5
I01
sS'jac'
p6
cnumpy.core.multiarray
_reconstruct
p7
(cnumpy
ndarray
p8
(I0
tp9
S'b'
p10
tp11
Rp12
(I1
(I3
tp13
cnumpy
dtype
p14
(S'f8'
p15
I0
I1
tp16
Rp17
(I3
S'<'
p18
NNNI-1
I-1
I0
tp19
bI00
S')hd\x08\xfa\x99E\xbf\x04#\x05\x89%j5\xbf\xb7\xc6<@\xbc\x1eC?'
p20
tp21
bsS'nfev'
p22
I25
sS'fun'
p23
F0.4286222037451375
sS'x'
p24
g7
(g8
(I0
tp25
g10
tp26
Rp27
(I1
(I3
tp28
g17
I00
S'\xf0-\x1f\x10\xc2O\xf5\xbfC\xe1\xff\xfd\x1d\xe5 @]\x879\xcd\xfe/\x12@'
p29
tp30
bsS'message'
p31
S'Optimization terminated successfully.'
p32
sS'nhev'
p33
I17
sS'njev'
p34
I41
stp35
Rp36
.