ccopy_reg
_reconstructor
p0
(cscipy.optimize.optimize
OptimizeResult
p1
c__builtin__
dict
p2
(dp3
S'status'
p4
I2
sS'success'
p5
I01
sS'nfev'
p6
I17
sS'fun'
p7
cnumpy.core.multiarray
scalar
p8
(cnumpy
dtype
p9
(S'f8'
p10
I0
I1
tp11
Rp12
(I3
S'<'
p13
NNNI-1
I-1
I0
tp14
bS'\x02\xaa\xc6*]\xac\xe7?'
p15
tp16
Rp17
sS'x'
p18
cnumpy.core.multiarray
_reconstruct
p19
(cnumpy
ndarray
p20
(I0
tp21
S'b'
p22
tp23
Rp24
(I1
(I3
tp25
g12
I00
S'Lv}\x8a\xa3\x0f\x00\xc0#\x99\xac\r\x8c\xa2\x18@^\\\xe5\x97\x0b\x1e\x04@'
p26
tp27
bsS'message'
p28
S'Converged (|x_n-x_(n-1)| ~= 0)'
p29
sS'jac'
p30
g19
(g20
(I0
tp31
g22
tp32
Rp33
(I1
(I3
tp34
g12
I00
S'\xce\x1c\x7f\xd4_\x0b\xeb\xbf\xb9\x18\xad\x1eQ\x99\xc8?*\x8c3ZB\x9c\xd8\xbf'
p35
tp36
bsS'nit'
p37
I3
stp38
Rp39
.