ccopy_reg
_reconstructor
p0
(cscipy.optimize.optimize
OptimizeResult
p1
c__builtin__
dict
p2
(dp3
S'status'
p4
I3
sS'nhev'
p5
I1
sS'success'
p6
I00
sS'jac'
p7
cnumpy.core.multiarray
_reconstruct
p8
(cnumpy
ndarray
p9
(I0
tp10
S'b'
p11
tp12
Rp13
(I1
(I3
tp14
cnumpy
dtype
p15
(S'f8'
p16
I0
I1
tp17
Rp18
(I3
S'<'
p19
NNNI-1
I-1
I0
tp20
bI00
S'\xbao\x88w\xd1s5@\x07\x1d^\xfe\xaa##@\x14\xa7\xba\xc6\x9f#3\xc0'
p21
tp22
bsS'nfev'
p23
I1
sS'fun'
p24
cnumpy.core.multiarray
scalar
p25
(g18
S'\xda\xb7\xd2\xc8\xa11S@'
p26
tp27
Rp28
sS'x'
p29
g8
(g9
(I0
tp30
g11
tp31
Rp32
(I1
(I3
tp33
g18
I00
S'\x00\xe5\xce-\xf6\x0f\xc9?iRg_X\x16"@V\xdd[\xff\xe1\xf4\x12@'
p34
tp35
bsS'message'
p36
S'A linalg error occurred, such as a non-psd Hessian.'
p37
sS'hess'
p38
g8
(g9
(I0
tp39
g11
tp40
Rp41
(I1
(I3
I3
tp42
g18
I00
S'\xebvb\xc5e\xc9M\xc01\x9eo\x1cM\xe8:\xc0\xf5\xc8/\']\xe9J@1\x9eo\x1cM\xe8:\xc0\x80])\xb3\x1d\xbf*\xc02"\xae\xd7\x8c\xbb:@\xf5\xc8/\']\xe9J@2"\xae\xd7\x8c\xbb:@n6\r\xa9\x87\xbcJ\xc0'
p43
tp44
bsS'njev'
p45
I1
sS'nit'
p46
I0
stp47
Rp48
.