ccopy_reg
_reconstructor
p0
(cscipy.optimize.optimize
OptimizeResult
p1
c__builtin__
dict
p2
(dp3
S'status'
p4
I0
sS'success'
p5
I01
sS'jac'
p6
cnumpy.core.multiarray
_reconstruct
p7
(cnumpy
ndarray
p8
(I0
tp9
S'b'
p10
tp11
Rp12
(I1
(I3
tp13
cnumpy
dtype
p14
(S'f8'
p15
I0
I1
tp16
Rp17
(I3
S'<'
p18
NNNI-1
I-1
I0
tp19
bI00
S'\xd1C\x97\xf6\xb1?`\xbf\xfb\x91\xcdf\xfaiM\xbf\xdc\x9d\xd6\xd6\x94_]?'
p20
tp21
bsS'nfev'
p22
I19
sS'fun'
p23
F0.4286238125580043
sS'x'
p24
g7
(g8
(I0
tp25
g10
tp26
Rp27
(I1
(I3
tp28
g17
I00
S')>\x9e:dQ\xf5\xbf\x1c\xf7\xa8\xd9oM\x1a@\x01p\xcd\xafK\xe2\x0c@'
p29
tp30
bsS'message'
p31
S'Optimization terminated successfully.'
p32
sS'nhev'
p33
I16
sS'njev'
p34
I34
stp35
Rp36
.