ccopy_reg
_reconstructor
p0
(cscipy.optimize.optimize
OptimizeResult
p1
c__builtin__
dict
p2
(dp3
S'status'
p4
I0
sS'success'
p5
I01
sS'jac'
p6
cnumpy.core.multiarray
_reconstruct
p7
(cnumpy
ndarray
p8
(I0
tp9
S'b'
p10
tp11
Rp12
(I1
(I3
tp13
cnumpy
dtype
p14
(S'f8'
p15
I0
I1
tp16
Rp17
(I3
S'<'
p18
NNNI-1
I-1
I0
tp19
bI00
S'-\xf8(\xcb\xe7\xcaI\xbf4\xe4\xd9\xe9w15\xbf&^\x13\x07\x91WE?'
p20
tp21
bsS'nfev'
p22
I33
sS'fun'
p23
F0.42862253633910863
sS'x'
p24
g7
(g8
(I0
tp25
g10
tp26
Rp27
(I1
(I3
tp28
g17
I00
S'\xa4\x8eG\xf2\xd0Q\xf5\xbf\xf8\x83\xad<\xa5\xca @2v\xeeH\xf3\x14\x12@'
p29
tp30
bsS'message'
p31
S'Optimization terminated successfully.'
p32
sS'nhev'
p33
I19
sS'njev'
p34
I51
stp35
Rp36
.