ccopy_reg
_reconstructor
p0
(cscipy.optimize.optimize
OptimizeResult
p1
c__builtin__
dict
p2
(dp3
S'status'
p4
I2
sS'success'
p5
I01
sS'nfev'
p6
I99
sS'fun'
p7
cnumpy.core.multiarray
scalar
p8
(cnumpy
dtype
p9
(S'f8'
p10
I0
I1
tp11
Rp12
(I3
S'<'
p13
NNNI-1
I-1
I0
tp14
bS'\x9cN\xd9`\xad\x94\xdc?'
p15
tp16
Rp17
sS'x'
p18
cnumpy.core.multiarray
_reconstruct
p19
(cnumpy
ndarray
p20
(I0
tp21
S'b'
p22
tp23
Rp24
(I1
(I3
tp25
g12
I00
S'\x0e\xa3\x0b\xb7\x1c7\xf0\xbf\xfe\x9b\xab\xdb\xe6q\x1b@\t\xa8\xafr\xd3r\x10@'
p26
tp27
bsS'message'
p28
S'Converged (|x_n-x_(n-1)| ~= 0)'
p29
sS'jac'
p30
g19
(g20
(I0
tp31
g22
tp32
Rp33
(I1
(I3
tp34
g12
I00
S'@\xa1\xe8e5\x13\xf0\xbf\x13d\x1co\xd0\xfb\xdf\xbf\xd7z\xc2\xd1\xe0\xfb\xef?'
p35
tp36
bsS'nit'
p37
I9
stp38
Rp39
.