ccopy_reg
_reconstructor
p0
(cscipy.optimize.optimize
OptimizeResult
p1
c__builtin__
dict
p2
(dp3
S'status'
p4
I2
sS'nhev'
p5
I12
sS'success'
p6
I00
sS'jac'
p7
cnumpy.core.multiarray
_reconstruct
p8
(cnumpy
ndarray
p9
(I0
tp10
S'b'
p11
tp12
Rp13
(I1
(I3
tp14
cnumpy
dtype
p15
(S'f8'
p16
I0
I1
tp17
Rp18
(I3
S'<'
p19
NNNI-1
I-1
I0
tp20
bI00
S'\xfd\xc8\x1b+C\xb0;?\xdbv%\x98\xbe\xf0 ?\xf0_\x7fMk\xbd4\xbf'
p21
tp22
bsS'nfev'
p23
I37
sS'fun'
p24
cnumpy.core.multiarray
scalar
p25
(g18
S'\x0f\x8e[\x84\x88n\xdb?'
p26
tp27
Rp28
sS'x'
p29
g8
(g9
(I0
tp30
g11
tp31
Rp32
(I1
(I3
tp33
g18
I00
S'\xe0=\x11Q\xdcP\xf5\xbf\x89B-\xa1\nC"@\x93\xed\tJ\x9b\x8d\x13@'
p34
tp35
bsS'message'
p36
S'A bad approximation caused failure to predict improvement.'
p37
sS'hess'
p38
g8
(g9
(I0
tp39
g11
tp40
Rp41
(I1
(I3
I3
tp42
g18
I00
S'\\\x8bcAO~T@\xf7\xb9"K\x1bTB@\xe2\xbb\xbf\xd5\tTR\xc0\xf7\xb9"K\x1bTB@c\x9f7m\xb6w0@\x15\x8e\xa3h\x14x@\xc0\xe2\xbb\xbf\xd5\tTR\xc0\x15\x8e\xa3h\x14x@\xc0\x85\x1609\x0cxP@'
p43
tp44
bsS'njev'
p45
I12
sS'nit'
p46
I35
stp47
Rp48
.