ccopy_reg
_reconstructor
p0
(cscipy.optimize.optimize
OptimizeResult
p1
c__builtin__
dict
p2
(dp3
S'status'
p4
I2
sS'nhev'
p5
I23
sS'success'
p6
I00
sS'jac'
p7
cnumpy.core.multiarray
_reconstruct
p8
(cnumpy
ndarray
p9
(I0
tp10
S'b'
p11
tp12
Rp13
(I1
(I3
tp14
cnumpy
dtype
p15
(S'f8'
p16
I0
I1
tp17
Rp18
(I3
S'<'
p19
NNNI-1
I-1
I0
tp20
bI00
S'\xc7\xdd{\xb2\\\\m\xbf\xfe\xbc\x9b~\x93\xfeV\xbf\x0c\xbc>i\x1a\xaeg?'
p21
tp22
bsS'nfev'
p23
I52
sS'fun'
p24
cnumpy.core.multiarray
scalar
p25
(g18
S'\xf2:\xe5.\x88n\xdb?'
p26
tp27
Rp28
sS'x'
p29
g8
(g9
(I0
tp30
g11
tp31
Rp32
(I1
(I3
tp33
g18
I00
S'\xdb\xbb\xa5_\xb3T\xf5\xbf\xba\x1e\xafM\x8f\x08!@d\x842=\x1bR\x12@'
p34
tp35
bsS'message'
p36
S'A bad approximation caused failure to predict improvement.'
p37
sS'hess'
p38
g8
(g9
(I0
tp39
g11
tp40
Rp41
(I1
(I3
I3
tp42
g18
I00
S'\x11\xe6\x97T7~T@Y\xe50\x89\x0cSB@\xb1P\xf6\xbc\xf9RR\xc0Y\xe50\x89\x0cSB@\xdc\xc5\x1aO:v0@N\x1b0\x8d@v@\xc0\xb1P\xf6\xbc\xf9RR\xc0N\x1b0\x8d@v@\xc0c[]\xfc\x97vP@'
p43
tp44
bsS'njev'
p45
I23
sS'nit'
p46
I50
stp47
Rp48
.