ccopy_reg
_reconstructor
p0
(cscipy.optimize.optimize
OptimizeResult
p1
c__builtin__
dict
p2
(dp3
S'status'
p4
I2
sS'success'
p5
I00
sS'nfev'
p6
I59
sS'fun'
p7
cnumpy.core.multiarray
scalar
p8
(cnumpy
dtype
p9
(S'f8'
p10
I0
I1
tp11
Rp12
(I3
S'<'
p13
NNNI-1
I-1
I0
tp14
bS'\xefN\xc0*\x8cn\xdb?'
p15
tp16
Rp17
sS'x'
p18
cnumpy.core.multiarray
_reconstruct
p19
(cnumpy
ndarray
p20
(I0
tp21
S'b'
p22
tp23
Rp24
(I1
(I3
tp25
g12
I00
S'{\x80=W\xe1P\xf5\xbf*\xbb\x1ai\xaa\x06\x1f@JZ\x18\xc7\xe2\xcd\x10@'
p26
tp27
bsS'message'
p28
S'ABNORMAL_TERMINATION_IN_LNSRCH'
p29
sS'jac'
p30
g19
(g20
(I0
tp31
g22
tp32
Rp33
(I1
(I3
tp34
g12
I00
S'\xe7\x03\xbd\xd4\x02\xf0N?q\x19\x88\xdc\xe1\x86<?\xad1\xd1\x10uZN\xbf'
p35
tp36
bsS'nit'
p37
I16
stp38
Rp39
.