ccopy_reg
_reconstructor
p0
(cscipy.optimize.optimize
OptimizeResult
p1
c__builtin__
dict
p2
(dp3
S'status'
p4
I4
sS'success'
p5
I00
sS'nfev'
p6
I74
sS'fun'
p7
cnumpy.core.multiarray
scalar
p8
(cnumpy
dtype
p9
(S'f8'
p10
I0
I1
tp11
Rp12
(I3
S'<'
p13
NNNI-1
I-1
I0
tp14
bS'\xbd\xbd\xbc\x83\x82\xd51@'
p15
tp16
Rp17
sS'x'
p18
cnumpy.core.multiarray
_reconstruct
p19
(cnumpy
ndarray
p20
(I0
tp21
S'b'
p22
tp23
Rp24
(I1
(I3
tp25
g12
I00
S'\x18\xb0\xefD\x97\x07\x07\xc0:U>\x9c\xf4\xaf\x18@\xde\xfa>\x8c\x85a\x05@'
p26
tp27
bsS'message'
p28
S'Linear search failed'
p29
sS'jac'
p30
g19
(g20
(I0
tp31
g22
tp32
Rp33
(I1
(I3
tp34
g12
I00
S'B\t\xfd\xca\xae\xe70\xc0\x88\xa5\x12\x88C\x98\x0c\xc0\xe2C\x0f\xba[\x98\x1c@'
p35
tp36
bsS'nit'
p37
I1
stp38
Rp39
.