ccopy_reg
_reconstructor
p0
(cscipy.optimize.optimize
OptimizeResult
p1
c__builtin__
dict
p2
(dp3
S'status'
p4
I3
sS'success'
p5
I00
sS'nfev'
p6
I100
sS'fun'
p7
cnumpy.core.multiarray
scalar
p8
(cnumpy
dtype
p9
(S'f8'
p10
I0
I1
tp11
Rp12
(I3
S'<'
p13
NNNI-1
I-1
I0
tp14
bS'";\x18\x916\xba\xe5?'
p15
tp16
Rp17
sS'x'
p18
cnumpy.core.multiarray
_reconstruct
p19
(cnumpy
ndarray
p20
(I0
tp21
S'b'
p22
tp23
Rp24
(I1
(I3
tp25
g12
I00
S'\xab\x9b\xcaz\xe4\xf2\xfe\xbf\xa0\xe3{\xb7\xd9\xf3"@\xb0\n\xe1Q\x8bc\x11@'
p26
tp27
bsS'message'
p28
S'Max. number of function evaluations reach'
p29
sS'jac'
p30
g19
(g20
(I0
tp31
g22
tp32
Rp33
(I1
(I3
tp34
g12
I00
S'p\xae\x1fX-\xdc\x0c\xc0\xda\xef\xa8\xa7!\x1d\x7f@\xac\x1bw\x12\xd4\xc2\xfa?'
p35
tp36
bsS'nit'
p37
I5
stp38
Rp39
.