ccopy_reg
_reconstructor
p0
(cscipy.optimize.optimize
OptimizeResult
p1
c__builtin__
dict
p2
(dp3
S'status'
p4
I0
sS'success'
p5
I01
sS'jac'
p6
cnumpy.core.multiarray
_reconstruct
p7
(cnumpy
ndarray
p8
(I0
tp9
S'b'
p10
tp11
Rp12
(I1
(I3
tp13
cnumpy
dtype
p14
(S'f8'
p15
I0
I1
tp16
Rp17
(I3
S'<'
p18
NNNI-1
I-1
I0
tp19
bI00
S'\xc6\xb7\xef\xc2\x9a\x02\x10\xbfD+)\x7f\xb9\xca\x0f\xbf\xcb\xa4\x01g\xf6\xfd\x02?'
p20
tp21
bsS'nfev'
p22
I12
sS'fun'
p23
F0.42862182749611705
sS'x'
p24
g7
(g8
(I0
tp25
g10
tp26
Rp27
(I1
(I3
tp28
g17
I00
S'\x9d\x83/]%Q\xf5\xbf\xd5\xde"\x07\x8f&!@\x81\xcd\xd4\xb6\x0cq\x12@'
p29
tp30
bsS'message'
p31
S'Optimization terminated successfully.'
p32
sS'nhev'
p33
I9
sS'njev'
p34
I20
stp35
Rp36
.