ccopy_reg
_reconstructor
p0
(cscipy.optimize.optimize
OptimizeResult
p1
c__builtin__
dict
p2
(dp3
S'status'
p4
I2
sS'nhev'
p5
I8
sS'success'
p6
I00
sS'jac'
p7
cnumpy.core.multiarray
_reconstruct
p8
(cnumpy
ndarray
p9
(I0
tp10
S'b'
p11
tp12
Rp13
(I1
(I3
tp14
cnumpy
dtype
p15
(S'f8'
p16
I0
I1
tp17
Rp18
(I3
S'<'
p19
NNNI-1
I-1
I0
tp20
bI00
S'I\x10\xe9\xc5\x8e8\x83\xbf\x95\x8e\xa3?(\x19o\xbf\x0fs\x18\xaa_d~?'
p21
tp22
bsS'nfev'
p23
I35
sS'fun'
p24
cnumpy.core.multiarray
scalar
p25
(g18
S'\x90\x82\x90\x9e\x92n\xdb?'
p26
tp27
Rp28
sS'x'
p29
g8
(g9
(I0
tp30
g11
tp31
Rp32
(I1
(I3
tp33
g18
I00
S'\x14\xddK\xe5\x93\\\xf5\xbf*\xf5\xb3L\x8dA\x1f@\r\xda\xd5;4\xe8\x10@'
p34
tp35
bsS'message'
p36
S'A bad approximation caused failure to predict improvement.'
p37
sS'hess'
p38
g8
(g9
(I0
tp39
g11
tp40
Rp41
(I1
(I3
I3
tp42
g18
I00
S'\xb6M\xf6x}~T@\t\x19\xbd\xed#QB@\xd5\x04ePMQR\xc0\t\x19\xbd\xed#QB@\x98\x9f\xc5"\xa5r0@Iy\xb5\xa8\x93r@\xc0\xd5\x04ePMQR\xc0Iy\xb5\xa8\x93r@\xc0\x11\xb6)\xa8\xcfrP@'
p43
tp44
bsS'njev'
p45
I8
sS'nit'
p46
I33
stp47
Rp48
.