ccopy_reg
_reconstructor
p0
(cscipy.optimize.optimize
OptimizeResult
p1
c__builtin__
dict
p2
(dp3
S'nfev'
p4
I1021
sS'success'
p5
I01
sS'fun'
p6
cnumpy.core.multiarray
scalar
p7
(cnumpy
dtype
p8
(S'f8'
p9
I0
I1
tp10
Rp11
(I3
S'<'
p12
NNNI-1
I-1
I0
tp13
bS'3\xb8\x13\x05\xddo\xdb?'
p14
tp15
Rp16
sS'x'
p17
cnumpy.core.multiarray
_reconstruct
p18
(cnumpy
ndarray
p19
(I0
tp20
S'b'
p21
tp22
Rp23
(I1
(I3
tp24
g11
I00
S'\\\xd9\xb4R\x1dd\xf5\xbf\xbb\xf2\xcbb\xc6$\x1a@:\xd3\x8d\x1c\x19\xac\x0c@'
p25
tp26
bsS'message'
p27
S'Optimization terminated successfully.'
p28
sS'jac'
p29
g18
(g19
(I0
tp30
g21
tp31
Rp32
(I1
(I3
tp33
g11
I00
S"6\xa1\x1a\xc3\xe7\xe4D@\x95\xb0\x00\xde'\xd8R@\xd7+\xcb\xd5\xfc\xa1R@"
p34
tp35
bsS'nit'
p36
I16
stp37
Rp38
.