ccopy_reg
_reconstructor
p0
(cscipy.optimize.optimize
OptimizeResult
p1
c__builtin__
dict
p2
(dp3
S'status'
p4
I2
sS'success'
p5
I00
sS'jac'
p6
cnumpy.core.multiarray
_reconstruct
p7
(cnumpy
ndarray
p8
(I0
tp9
S'b'
p10
tp11
Rp12
(I1
(I3
tp13
cnumpy
dtype
p14
(S'f8'
p15
I0
I1
tp16
Rp17
(I3
S'<'
p18
NNNI-1
I-1
I0
tp19
bI00
S'z\xc9g\x98\x1d\x15M\xbf\x0e$@\xceCE:\xbfkS\x07\xdf?\xc6G?'
p20
tp21
bsS'nfev'
p22
I57
sS'fun'
p23
F0.42862187950783814
sS'x'
p24
g7
(g8
(I0
tp25
g10
tp26
Rp27
(I1
(I3
tp28
g17
I00
S'\xfc\xa99\xbc\x13R\xf5\xbf\xff0N\xd1R\xe4!@\xf0d\xde\xf5\x90.\x13@'
p29
tp30
bsS'message'
p31
S'Desired error not necessarily achieved due to precision loss.'
p32
sS'nhev'
p33
I15
sS'njev'
p34
I61
stp35
Rp36
.