ccopy_reg
_reconstructor
p0
(cscipy.optimize.optimize
OptimizeResult
p1
c__builtin__
dict
p2
(dp3
S'status'
p4
I0
sS'nhev'
p5
I13
sS'success'
p6
I01
sS'jac'
p7
cnumpy.core.multiarray
_reconstruct
p8
(cnumpy
ndarray
p9
(I0
tp10
S'b'
p11
tp12
Rp13
(I1
(I3
tp14
cnumpy
dtype
p15
(S'f8'
p16
I0
I1
tp17
Rp18
(I3
S'<'
p19
NNNI-1
I-1
I0
tp20
bI00
S'Hm\xf0|\xc0\xfb\xf9>\xbb\xba\n\xeef\x99\xf8>@D\xd7\xe1,\x93\xe3>'
p21
tp22
bsS'nfev'
p23
I24
sS'fun'
p24
cnumpy.core.multiarray
scalar
p25
(g18
S'\xef\x84\xfc\xd9\x8dn\xdb?'
p26
tp27
Rp28
sS'x'
p29
g8
(g9
(I0
tp30
g11
tp31
Rp32
(I1
(I3
tp33
g18
I00
S'%\xbb<\xbf)R\xf5\xbf;S\xbdC!Y\x1c@\xded4p\x8d\xed\x0e@'
p34
tp35
bsS'message'
p36
S'Optimization terminated successfully.'
p37
sS'hess'
p38
g8
(g9
(I0
tp39
g11
tp40
Rp41
(I1
(I3
I3
tp42
g18
I00
S'n\xef\x1e\xae5~T@\x960\xca\x18~SB@`\x9e7w\x9cSR\xc0\x960\xca\x18~SB@td\xd4;aw0@`\xfe2\xd5|w@\xc0`\x9e7w\x9cSR\xc0`\xfe2\xd5|w@\xc0\x8a\x0fF\xd7lwP@'
p43
tp44
bsS'njev'
p45
I14
sS'nit'
p46
I23
stp47
Rp48
.