ccopy_reg
_reconstructor
p0
(cscipy.optimize.optimize
OptimizeResult
p1
c__builtin__
dict
p2
(dp3
S'status'
p4
I2
sS'success'
p5
I00
sS'nfev'
p6
I85
sS'fun'
p7
cnumpy.core.multiarray
scalar
p8
(cnumpy
dtype
p9
(S'f8'
p10
I0
I1
tp11
Rp12
(I3
S'<'
p13
NNNI-1
I-1
I0
tp14
bS"\xe8\xb4'\xae\x88n\xdb?"
p15
tp16
Rp17
sS'x'
p18
cnumpy.core.multiarray
_reconstruct
p19
(cnumpy
ndarray
p20
(I0
tp21
S'b'
p22
tp23
Rp24
(I1
(I3
tp25
g12
I00
S'\x91,\xd0`\x97Q\xf5\xbf\xcb^\x0c\x9f\x00\x99 @\xf0R\xa2\xf3`\xe3\x11@'
p26
tp27
bsS'message'
p28
S'ABNORMAL_TERMINATION_IN_LNSRCH'
p29
sS'jac'
p30
g19
(g20
(I0
tp31
g22
tp32
Rp33
(I1
(I3
tp34
g12
I00
S'O<\x8e\x928yF\xbf\xbbq7h\x14\x8b-\xbf\xa3\xe5\xa7\xc9\xeb\xe3C?'
p35
tp36
bsS'nit'
p37
I10
stp38
Rp39
.