ccopy_reg
_reconstructor
p0
(cscipy.optimize.optimize
OptimizeResult
p1
c__builtin__
dict
p2
(dp3
S'status'
p4
I2
sS'success'
p5
I00
sS'nfev'
p6
I42
sS'fun'
p7
cnumpy.core.multiarray
scalar
p8
(cnumpy
dtype
p9
(S'f8'
p10
I0
I1
tp11
Rp12
(I3
S'<'
p13
NNNI-1
I-1
I0
tp14
bS'\x00\x00\x00\x00\x00\x00\xf8\x7f'
p15
tp16
Rp17
sS'x'
p18
cnumpy.core.multiarray
_reconstruct
p19
(cnumpy
ndarray
p20
(I0
tp21
S'b'
p22
tp23
Rp24
(I1
(I3
tp25
g12
I00
S'J\xea\x02\x08\xfc\x9c\xf4\xbf\x07\xa6\x93\x9c\xe7\xb3"@\xf1\xe7\x17\xb52\xa5\x14@'
p26
tp27
bsS'message'
p28
S'ABNORMAL_TERMINATION_IN_LNSRCH'
p29
sS'jac'
p30
g19
(g20
(I0
tp31
g22
tp32
Rp33
(I1
(I3
tp34
g12
I00
S'n\xe3\x14\x15\xb4\xab\x1d\xc0\xaeT\xe7<ld\x0b\xc0\xdb\x08|f\x17e\x1b@'
p35
tp36
bsS'nit'
p37
I1
stp38
Rp39
.