ccopy_reg
_reconstructor
p0
(cscipy.optimize.optimize
OptimizeResult
p1
c__builtin__
dict
p2
(dp3
S'nfev'
p4
I1085
sS'success'
p5
I01
sS'fun'
p6
cnumpy.core.multiarray
scalar
p7
(cnumpy
dtype
p8
(S'f8'
p9
I0
I1
tp10
Rp11
(I3
S'<'
p12
NNNI-1
I-1
I0
tp13
bS'8C\xf0L\xbdn\xdb?'
p14
tp15
Rp16
sS'x'
p17
cnumpy.core.multiarray
_reconstruct
p18
(cnumpy
ndarray
p19
(I0
tp20
S'b'
p21
tp22
Rp23
(I1
(I3
tp24
g11
I00
S'\xd9\x90\xf3\x9bhk\xf5\xbf\xb0\x8a\x8f\x9a\xb2\r\x17@\xe4\xa1\x07\xd5\x94\x94\t@'
p25
tp26
bsS'message'
p27
S'Optimization terminated successfully.'
p28
sS'jac'
p29
g18
(g19
(I0
tp30
g21
tp31
Rp32
(I1
(I3
tp33
g11
I00
S'po=(\xe3\xf80@\x18h*\xc6\xa0\x9b6@\x00{\x1a\x19\x11\xa8\xf5?'
p34
tp35
bsS'nit'
p36
I20
stp37
Rp38
.