ccopy_reg
_reconstructor
p0
(cscipy.optimize.optimize
OptimizeResult
p1
c__builtin__
dict
p2
(dp3
S'status'
p4
I4
sS'success'
p5
I00
sS'nfev'
p6
I66
sS'fun'
p7
cnumpy.core.multiarray
scalar
p8
(cnumpy
dtype
p9
(S'f8'
p10
I0
I1
tp11
Rp12
(I3
S'<'
p13
NNNI-1
I-1
I0
tp14
bS'F\xde\x95^\xa3\x8c0@'
p15
tp16
Rp17
sS'x'
p18
cnumpy.core.multiarray
_reconstruct
p19
(cnumpy
ndarray
p20
(I0
tp21
S'b'
p22
tp23
Rp24
(I1
(I3
tp25
g12
I00
S'\x14\xf2\xf8(\xe4K\xf6\xbf\x8dP\xbc\x9cz\x98\x1f@\r\x0b\xfd\x9bJ4\x15@'
p26
tp27
bsS'message'
p28
S'Linear search failed'
p29
sS'jac'
p30
g19
(g20
(I0
tp31
g22
tp32
Rp33
(I1
(I3
tp34
g12
I00
S'\xf1\xb5\xd3\xb2\x1bA.\xc0\x05\x8f|\xccZ\x8c\x1d\xc0\x81\xad \x8d\xa9\x8c-@'
p35
tp36
bsS'nit'
p37
I0
stp38
Rp39
.