ccopy_reg
_reconstructor
p0
(cscipy.optimize.optimize
OptimizeResult
p1
c__builtin__
dict
p2
(dp3
S'status'
p4
I3
sS'nhev'
p5
I1
sS'success'
p6
I00
sS'jac'
p7
cnumpy.core.multiarray
_reconstruct
p8
(cnumpy
ndarray
p9
(I0
tp10
S'b'
p11
tp12
Rp13
(I1
(I3
tp14
cnumpy
dtype
p15
(S'f8'
p16
I0
I1
tp17
Rp18
(I3
S'<'
p19
NNNI-1
I-1
I0
tp20
bI00
S'\x0e\x9b2pA\x1cQ@\x8a\x98\x97\x90\x9f\xd0+@@\xc0\xbby@\xd1;\xc0'
p21
tp22
bsS'nfev'
p23
I1
sS'fun'
p24
cnumpy.core.multiarray
scalar
p25
(g18
S'c\xbdcy\x98JH@'
p26
tp27
Rp28
sS'x'
p29
g8
(g9
(I0
tp30
g11
tp31
Rp32
(I1
(I3
tp33
g18
I00
S'L\x83\x91(A\xe9\xf4\xbf\x13\xeb\xbe\xc4\xfd>!@\x12\xcf\xdb4\xc3$\n@'
p34
tp35
bsS'message'
p36
S'A linalg error occurred, such as a non-psd Hessian.'
p37
sS'hess'
p38
g8
(g9
(I0
tp39
g11
tp40
Rp41
(I1
(I3
I3
tp42
g18
I00
S'|\xd7\xc2\x9bI\xb8R\xc0B\xb7\x13s\x97/0\xc04bge02@@B\xb7\x13s\x97/0\xc04n\x90;\xba\xdd(\xc0Ee5\xcc\x18\xe78@4bge02@@Ee5\xcc\x18\xe78@Gg2\x9d\xc5\xd6H\xc0'
p43
tp44
bsS'njev'
p45
I1
sS'nit'
p46
I0
stp47
Rp48
.