ccopy_reg
_reconstructor
p0
(cscipy.optimize.optimize
OptimizeResult
p1
c__builtin__
dict
p2
(dp3
S'status'
p4
I3
sS'success'
p5
I00
sS'nfev'
p6
I100
sS'fun'
p7
cnumpy.core.multiarray
scalar
p8
(cnumpy
dtype
p9
(S'f8'
p10
I0
I1
tp11
Rp12
(I3
S'<'
p13
NNNI-1
I-1
I0
tp14
bS'@J\xd1\xa27\xe0\xe5?'
p15
tp16
Rp17
sS'x'
p18
cnumpy.core.multiarray
_reconstruct
p19
(cnumpy
ndarray
p20
(I0
tp21
S'b'
p22
tp23
Rp24
(I1
(I3
tp25
g12
I00
S'\xb2\xee\xef\xe4\xbbz\xff\xbf\x14\x92\xf6\xad\t\xee\x15@\xc0\xaal\xc0y\xf4\x01@'
p26
tp27
bsS'message'
p28
S'Max. number of function evaluations reach'
p29
sS'jac'
p30
g19
(g20
(I0
tp31
g22
tp32
Rp33
(I1
(I3
tp34
g12
I00
S'\xcd.0\xb9k\xbb\xe6\xbf\xd95\xc9\xd9?>\x7f\xc06\xb7\x0c\xda]\xad\xd6\xbf'
p35
tp36
bsS'nit'
p37
I8
stp38
Rp39
.