ccopy_reg
_reconstructor
p0
(cscipy.optimize.optimize
OptimizeResult
p1
c__builtin__
dict
p2
(dp3
S'status'
p4
I0
sS'success'
p5
I01
sS'nfev'
p6
I9
sS'fun'
p7
cnumpy.core.multiarray
scalar
p8
(cnumpy
dtype
p9
(S'f8'
p10
I0
I1
tp11
Rp12
(I3
S'<'
p13
NNNI-1
I-1
I0
tp14
bS'\xa9\x01\x932,\xe9\xe0?'
p15
tp16
Rp17
sS'x'
p18
cnumpy.core.multiarray
_reconstruct
p19
(cnumpy
ndarray
p20
(I0
tp21
S'b'
p22
tp23
Rp24
(I1
(I3
tp25
g12
I00
S'\xec\x9e\xbe\xe0d\xb3\xf7\xbf:\x94\xb3\xa6\xce\xa4"@\x02G\'\xa0\xa0{\x13@'
p26
tp27
bsS'message'
p28
S'CONVERGENCE: REL_REDUCTION_OF_F_<=_FACTR*EPSMCH'
p29
sS'jac'
p30
g19
(g20
(I0
tp31
g22
tp32
Rp33
(I1
(I3
tp34
g12
I00
S'\xa8\xbb\x87~\x85\x06\x0f\xc0L\x0b\xa1\x83\x8e\x80\xfa\xbf=<\xe76\x04\x81\n@'
p35
tp36
bsS'nit'
p37
I2
stp38
Rp39
.