ccopy_reg
_reconstructor
p0
(cscipy.optimize.optimize
OptimizeResult
p1
c__builtin__
dict
p2
(dp3
S'status'
p4
I2
sS'success'
p5
I00
sS'jac'
p6
cnumpy.core.multiarray
_reconstruct
p7
(cnumpy
ndarray
p8
(I0
tp9
S'b'
p10
tp11
Rp12
(I1
(I3
tp13
cnumpy
dtype
p14
(S'f8'
p15
I0
I1
tp16
Rp17
(I3
S'<'
p18
NNNI-1
I-1
I0
tp19
bI00
S'\x85\xcd\x07\xd1\x94\x03\x8a\xbfW\x06F\xd3K\xdct\xbf\xcc\xeb\xa0\x7f\xff\x83\x84?'
p20
tp21
bsS'nfev'
p22
I55
sS'fun'
p23
F0.42862436101750145
sS'x'
p24
g7
(g8
(I0
tp25
g10
tp26
Rp27
(I1
(I3
tp28
g17
I00
S'\rjL1\x96^\xf5\xbf\xcb<b\xce\xee\x16 @\xc3\x07l\x81\xd7]\x11@'
p29
tp30
bsS'message'
p31
S'Desired error not necessarily achieved due to precision loss.'
p32
sS'nhev'
p33
I12
sS'njev'
p34
I54
stp35
Rp36
.