ccopy_reg
_reconstructor
p0
(cscipy.optimize.optimize
OptimizeResult
p1
c__builtin__
dict
p2
(dp3
S'status'
p4
I2
sS'success'
p5
I01
sS'nfev'
p6
I31
sS'fun'
p7
cnumpy.core.multiarray
scalar
p8
(cnumpy
dtype
p9
(S'f8'
p10
I0
I1
tp11
Rp12
(I3
S'<'
p13
NNNI-1
I-1
I0
tp14
bS'\xf7\x92\xfc\xf9\x81?\xde?'
p15
tp16
Rp17
sS'x'
p18
cnumpy.core.multiarray
_reconstruct
p19
(cnumpy
ndarray
p20
(I0
tp21
S'b'
p22
tp23
Rp24
(I1
(I3
tp25
g12
I00
S'[\x8e{\x81\xc4T\xd9?0p\xc2\t\xb7\x15\x18@j\x97\xc9\x9aLq\x14@'
p26
tp27
bsS'message'
p28
S'Converged (|x_n-x_(n-1)| ~= 0)'
p29
sS'jac'
p30
g19
(g20
(I0
tp31
g22
tp32
Rp33
(I1
(I3
tp34
g12
I00
S'\xd5]H\xda\x9d\x8c\xa5?\xccu\xd4\xfe\xb8\x0f\x93?\xb8\x84\xdc\xcc\xa56\xa3\xbf'
p35
tp36
bsS'nit'
p37
I3
stp38
Rp39
.