ccopy_reg
_reconstructor
p0
(cscipy.optimize.optimize
OptimizeResult
p1
c__builtin__
dict
p2
(dp3
S'status'
p4
I0
sS'nhev'
p5
I15
sS'success'
p6
I01
sS'jac'
p7
cnumpy.core.multiarray
_reconstruct
p8
(cnumpy
ndarray
p9
(I0
tp10
S'b'
p11
tp12
Rp13
(I1
(I3
tp14
cnumpy
dtype
p15
(S'f8'
p16
I0
I1
tp17
Rp18
(I3
S'<'
p19
NNNI-1
I-1
I0
tp20
bI00
S'\x0c\x1cr|.P\x0c?"\x10\x0f`v\x9f\xe8\xbe\x999\xea\xc3\x16\xe9\x06?'
p21
tp22
bsS'nfev'
p23
I22
sS'fun'
p24
cnumpy.core.multiarray
scalar
p25
(g18
S'nJK`\x8cn\xdb?'
p26
tp27
Rp28
sS'x'
p29
g8
(g9
(I0
tp30
g11
tp31
Rp32
(I1
(I3
tp33
g18
I00
S"@a\xac\x17\x0cP\xf5\xbf\x17P\xed\x81\x0c\xb9\x1f@\xf6\xb0>\x91R'\x11@"
p34
tp35
bsS'message'
p36
S'Optimization terminated successfully.'
p37
sS'hess'
p38
g8
(g9
(I0
tp39
g11
tp40
Rp41
(I1
(I3
I3
tp42
g18
I00
S'T\xc3\x90\xd0\xa7}T@\x91\x186>\xb6TB@%b\xde\xcb\xe4SR\xc0\x91\x186>\xb6TB@^m\xd7>9x0@\xdf\xdc&\x0cCx@\xc0%b\xde\xcb\xe4SR\xc0\xdf\xdc&\x0cCx@\xc0\xd91\xe9\xcd(xP@'
p43
tp44
bsS'njev'
p45
I16
sS'nit'
p46
I21
stp47
Rp48
.