ccopy_reg
_reconstructor
p0
(cscipy.optimize.optimize
OptimizeResult
p1
c__builtin__
dict
p2
(dp3
S'status'
p4
I2
sS'nhev'
p5
I12
sS'success'
p6
I00
sS'jac'
p7
cnumpy.core.multiarray
_reconstruct
p8
(cnumpy
ndarray
p9
(I0
tp10
S'b'
p11
tp12
Rp13
(I1
(I3
tp14
cnumpy
dtype
p15
(S'f8'
p16
I0
I1
tp17
Rp18
(I3
S'<'
p19
NNNI-1
I-1
I0
tp20
bI00
S'3\xf1a\x06\x8c\xc44\xbf\xd0,1\xb4\x8022\xbf$j\xd09_\xd0D?'
p21
tp22
bsS'nfev'
p23
I37
sS'fun'
p24
cnumpy.core.multiarray
scalar
p25
(g18
S'ot$+\x8an\xdb?'
p26
tp27
Rp28
sS'x'
p29
g8
(g9
(I0
tp30
g11
tp31
Rp32
(I1
(I3
tp33
g18
I00
S'\xcfB\xf3\x1c_M\xf5\xbf\xf9\xe0\x81\x02\xcd-\x1e@O \x03\x04tb\x10@'
p34
tp35
bsS'message'
p36
S'A bad approximation caused failure to predict improvement.'
p37
sS'hess'
p38
g8
(g9
(I0
tp39
g11
tp40
Rp41
(I1
(I3
I3
tp42
g18
I00
S'\xae.\xc8\xb5\x16}T@D\xaf"f\xadTB@\x92\x9e\x03\xcd5TR\xc0D\xaf"f\xadTB@)\xee\xd6\xab>y0@X\xaf\x03p\x17y@\xc0\x92\x9e\x03\xcd5TR\xc0X\xaf\x03p\x17y@\xc0\x88E\xa4\xe6\x16yP@'
p43
tp44
bsS'njev'
p45
I12
sS'nit'
p46
I35
stp47
Rp48
.