ccopy_reg
_reconstructor
p0
(cscipy.optimize.optimize
OptimizeResult
p1
c__builtin__
dict
p2
(dp3
S'status'
p4
I3
sS'nhev'
p5
I1
sS'success'
p6
I00
sS'jac'
p7
cnumpy.core.multiarray
_reconstruct
p8
(cnumpy
ndarray
p9
(I0
tp10
S'b'
p11
tp12
Rp13
(I1
(I3
tp14
cnumpy
dtype
p15
(S'f8'
p16
I0
I1
tp17
Rp18
(I3
S'<'
p19
NNNI-1
I-1
I0
tp20
bI00
S'#\x91uI\xa5\xcfM@N]\xe0\xc7u8<@_#Q\x88\xd68L\xc0'
p21
tp22
bsS'nfev'
p23
I1
sS'fun'
p24
cnumpy.core.multiarray
scalar
p25
(g18
S'@\xd3\xf6N\xe1b0@'
p26
tp27
Rp28
sS'x'
p29
g8
(g9
(I0
tp30
g11
tp31
Rp32
(I1
(I3
tp33
g18
I00
S'\xd4#\x99\xde\x10\xa3\xe2\xbf\xed\x82\x05\xb9h1!@^Y\xcd\x8a\x99W\x13@'
p34
tp35
bsS'message'
p36
S'A linalg error occurred, such as a non-psd Hessian.'
p37
sS'hess'
p38
g8
(g9
(I0
tp39
g11
tp40
Rp41
(I1
(I3
I3
tp42
g18
I00
S'\xc5\x95q\x18i\xecW@\x11C\x93\x90b\xfaF@O\xf2\x9960\xfcV\xc0\x11C\x93\x90b\xfaF@&\xd0\x9d5?n4@\xbf\x12\x98\xfb\xcbnD\xc0O\xf2\x9960\xfcV\xc0\xbf\x12\x98\xfb\xcbnD\xc0(\xa11\x8b\x04nT@'
p43
tp44
bsS'njev'
p45
I1
sS'nit'
p46
I0
stp47
Rp48
.