ccopy_reg
_reconstructor
p0
(cscipy.optimize.optimize
OptimizeResult
p1
c__builtin__
dict
p2
(dp3
S'status'
p4
I2
sS'success'
p5
I00
sS'jac'
p6
cnumpy.core.multiarray
_reconstruct
p7
(cnumpy
ndarray
p8
(I0
tp9
S'b'
p10
tp11
Rp12
(I1
(I3
tp13
cnumpy
dtype
p14
(S'f8'
p15
I0
I1
tp16
Rp17
(I3
S'<'
p18
NNNI-1
I-1
I0
tp19
bI00
S"\xc7-\xbdz$\x0e1??\xbe\xbf]5F\x1a\xbf~J\x17\x8cw'\xf2>"
p20
tp21
bsS'nfev'
p22
I65
sS'fun'
p23
F0.4286223133711302
sS'x'
p24
g7
(g8
(I0
tp25
g10
tp26
Rp27
(I1
(I3
tp28
g17
I00
S'"\x0b\x11\x1e8N\xf5\xbfN\x12\x96\xc5\x93\x02"@\x0e\xb1\xfe\xd6\xe1M\x13@'
p29
tp30
bsS'message'
p31
S'Desired error not necessarily achieved due to precision loss.'
p32
sS'njev'
p33
I52
stp34
Rp35
.