ccopy_reg
_reconstructor
p0
(cscipy.optimize.optimize
OptimizeResult
p1
c__builtin__
dict
p2
(dp3
S'status'
p4
I0
sS'success'
p5
I01
sS'jac'
p6
cnumpy.core.multiarray
_reconstruct
p7
(cnumpy
ndarray
p8
(I0
tp9
S'b'
p10
tp11
Rp12
(I1
(I3
tp13
cnumpy
dtype
p14
(S'f8'
p15
I0
I1
tp16
Rp17
(I3
S'<'
p18
NNNI-1
I-1
I0
tp19
bI00
S't\xf3nG\xf8\xfa@\xbfb\x17o\x126N\xe9>\xcc\xd8\xed]\xe0w\xfc\xbe'
p20
tp21
bsS'nfev'
p22
I358
sS'fun'
p23
F0.428622714546477
sS'x'
p24
g7
(g8
(I0
tp25
g10
tp26
Rp27
(I1
(I3
tp28
g17
I00
S'\xcd\xbd\xc4\xc2&U\xf5\xbf\r($\xc3[4\x1d@6\xbcS\xbc\x1d\xc7\x0f@'
p29
tp30
bsS'message'
p31
S'Optimization terminated successfully.'
p32
sS'nhev'
p33
I342
sS'njev'
p34
I699
stp35
Rp36
.