ccopy_reg
_reconstructor
p0
(cscipy.optimize.optimize
OptimizeResult
p1
c__builtin__
dict
p2
(dp3
S'status'
p4
I1
sS'success'
p5
I00
sS'jac'
p6
cnumpy.core.multiarray
_reconstruct
p7
(cnumpy
ndarray
p8
(I0
tp9
S'b'
p10
tp11
Rp12
(I1
(I3
tp13
cnumpy
dtype
p14
(S'f8'
p15
I0
I1
tp16
Rp17
(I3
S'<'
p18
NNNI-1
I-1
I0
tp19
bI00
S'\xff\x180P+\\\x83?\xd7`\xe7a\xc2\xdb\x91\xbf\xa2[\xb3\x94;\xd0\xa1?'
p20
tp21
bsS'nfev'
p22
I602
sS'fun'
p23
F0.4480028621787889
sS'x'
p24
g7
(g8
(I0
tp25
g10
tp26
Rp27
(I1
(I3
tp28
g17
I00
S'Y\xb2\x01\xd9\xe8\xc2\xea\xbf\x08rU\xa6\x13g\x17@5\xba\xfd\x93\xf18\x0e@'
p29
tp30
bsS'message'
p31
S'Maximum number of iterations has been exceeded.'
p32
sS'nhev'
p33
I600
sS'njev'
p34
I1201
stp35
Rp36
.