ccopy_reg
_reconstructor
p0
(cscipy.optimize.optimize
OptimizeResult
p1
c__builtin__
dict
p2
(dp3
S'status'
p4
I2
sS'nhev'
p5
I23
sS'success'
p6
I00
sS'jac'
p7
cnumpy.core.multiarray
_reconstruct
p8
(cnumpy
ndarray
p9
(I0
tp10
S'b'
p11
tp12
Rp13
(I1
(I3
tp14
cnumpy
dtype
p15
(S'f8'
p16
I0
I1
tp17
Rp18
(I3
S'<'
p19
NNNI-1
I-1
I0
tp20
bI00
S'\xcc\xcf*?)n\x1e?o\x12\x83\xa8\xfa\xdf\xed>~\xa6y[\x8cG\x00\xbf'
p21
tp22
bsS'nfev'
p23
I47
sS'fun'
p24
cnumpy.core.multiarray
scalar
p25
(g18
S'\x0fc\xab\xb8\x89n\xdb?'
p26
tp27
Rp28
sS'x'
p29
g8
(g9
(I0
tp30
g11
tp31
Rp32
(I1
(I3
tp33
g18
I00
S'\x94G\xed6\xdaO\xf5\xbf\x07(\x0f\xdcA\x9b @\x8fg\xdd\x88\x1b\xe6\x11@'
p34
tp35
bsS'message'
p36
S'A bad approximation caused failure to predict improvement.'
p37
sS'hess'
p38
g8
(g9
(I0
tp39
g11
tp40
Rp41
(I1
(I3
I3
tp42
g18
I00
S'\x87\xcc\x86\x06\x19~T@\x8e\xf8z@-TB@\xea \x05\xad\x1cTR\xc0\x8e\xf8z@-TB@}#"L_x0@\xd43\xdfmkx@\xc0\xea \x05\xad\x1cTR\xc0\xd43\xdfmkx@\xc0TrJ\xcewxP@'
p43
tp44
bsS'njev'
p45
I23
sS'nit'
p46
I45
stp47
Rp48
.