ccopy_reg
_reconstructor
p0
(cscipy.optimize.optimize
OptimizeResult
p1
c__builtin__
dict
p2
(dp3
S'status'
p4
I2
sS'success'
p5
I00
sS'jac'
p6
cnumpy.core.multiarray
_reconstruct
p7
(cnumpy
ndarray
p8
(I0
tp9
S'b'
p10
tp11
Rp12
(I1
(I3
tp13
cnumpy
dtype
p14
(S'f8'
p15
I0
I1
tp16
Rp17
(I3
S'<'
p18
NNNI-1
I-1
I0
tp19
bI00
S'o\x9d\x9d4M\xf7\x0e\xc0*\xd4\xb2\xff\xef\xf3\xfd\xbf\xc7\xad\xc0\xb6\x03\xf4\r@'
p20
tp21
bsS'nfev'
p22
I16
sS'fun'
p23
F0.5464487092591332
sS'x'
p24
g7
(g8
(I0
tp25
g10
tp26
Rp27
(I1
(I3
tp28
g17
I00
S"\x80N\xd5\xe6Z@\xef\xbf\x90\xb3\xfb\x8c\xc6\xeb\x19@/\x05'\xf3i\x01\x10@"
p29
tp30
bsS'message'
p31
S'Desired error not necessarily achieved due to precision loss.'
p32
sS'njev'
p33
I4
stp34
Rp35
.