ccopy_reg
_reconstructor
p0
(cscipy.optimize.optimize
OptimizeResult
p1
c__builtin__
dict
p2
(dp3
S'status'
p4
I0
sS'nhev'
p5
I14
sS'success'
p6
I01
sS'jac'
p7
cnumpy.core.multiarray
_reconstruct
p8
(cnumpy
ndarray
p9
(I0
tp10
S'b'
p11
tp12
Rp13
(I1
(I3
tp14
cnumpy
dtype
p15
(S'f8'
p16
I0
I1
tp17
Rp18
(I3
S'<'
p19
NNNI-1
I-1
I0
tp20
bI00
S'(\x13_c\x184\xfa\xbe\x0e!\xefi\xdct\x06\xbf\xeb\xb3K\nat\x14?'
p21
tp22
bsS'nfev'
p23
I16
sS'fun'
p24
cnumpy.core.multiarray
scalar
p25
(g18
S'\xc6\x91]\x19\x8fn\xdb?'
p26
tp27
Rp28
sS'x'
p29
g8
(g9
(I0
tp30
g11
tp31
Rp32
(I1
(I3
tp33
g18
I00
S';\xd4&\xde\xb9Q\xf5\xbfXN\n\x06\x8c\x08\x1e@\xac|\x0c!\x9bN\x10@'
p34
tp35
bsS'message'
p36
S'Optimization terminated successfully.'
p37
sS'hess'
p38
g8
(g9
(I0
tp39
g11
tp40
Rp41
(I1
(I3
I3
tp42
g18
I00
S'\x84\xe2x\xe1P~T@:\xbf\x0f\x9b`SB@\xcd\xb6/\x8c\xe1SR\xc0:\xbf\x0f\x9b`SB@~^\x9e\x99Vw0@\xc92\x97\xe4\x98w@\xc0\xcd\xb6/\x8c\xe1SR\xc0\xc92\x97\xe4\x98w@\xc0l~w\x87awP@'
p43
tp44
bsS'njev'
p45
I15
sS'nit'
p46
I15
stp47
Rp48
.