ccopy_reg
_reconstructor
p0
(cscipy.optimize.optimize
OptimizeResult
p1
c__builtin__
dict
p2
(dp3
S'status'
p4
I0
sS'success'
p5
I01
sS'jac'
p6
cnumpy.core.multiarray
_reconstruct
p7
(cnumpy
ndarray
p8
(I0
tp9
S'b'
p10
tp11
Rp12
(I1
(I3
tp13
cnumpy
dtype
p14
(S'f8'
p15
I0
I1
tp16
Rp17
(I3
S'<'
p18
NNNI-1
I-1
I0
tp19
bI00
S'\xfeo\n0\xbfD.\xbf\xa0\xd2\xf3\xcc\xbbB\x1f?\xd4\xf9\x97\xd6\xef\xb30\xbf'
p20
tp21
bsS'nfev'
p22
I47
sS'fun'
p23
F0.42862243772668607
sS'x'
p24
g7
(g8
(I0
tp25
g10
tp26
Rp27
(I1
(I3
tp28
g17
I00
S'\t\x1e\xc5\xf5"W\xf5\xbfE\r\x94\xd7\xb0\xda\x18@\xfdd]nYl\x0b@'
p29
tp30
bsS'message'
p31
S'Optimization terminated successfully.'
p32
sS'nhev'
p33
I24
sS'njev'
p34
I70
stp35
Rp36
.