ccopy_reg
_reconstructor
p0
(cscipy.optimize.optimize
OptimizeResult
p1
c__builtin__
dict
p2
(dp3
S'status'
p4
I2
sS'success'
p5
I00
sS'jac'
p6
cnumpy.core.multiarray
_reconstruct
p7
(cnumpy
ndarray
p8
(I0
tp9
S'b'
p10
tp11
Rp12
(I1
(I3
tp13
cnumpy
dtype
p14
(S'f8'
p15
I0
I1
tp16
Rp17
(I3
S'<'
p18
NNNI-1
I-1
I0
tp19
bI00
S'\x1f\xdc0\xec\xea#/?\x0e\x8f\x1a\\g\xb1\x13?\x03?l\x87\x8a\x01(\xbf'
p20
tp21
bsS'nfev'
p22
I64
sS'fun'
p23
F0.4286223893496515
sS'x'
p24
g7
(g8
(I0
tp25
g10
tp26
Rp27
(I1
(I3
tp28
g17
I00
S'\xb7D,\xea\x80Q\xf5\xbf\xe1\x95,\x01\x1f\xa1\x1d@\xb2\x06\xaf{\xf3\x1a\x10@'
p29
tp30
bsS'message'
p31
S'Desired error not necessarily achieved due to precision loss.'
p32
sS'njev'
p33
I53
stp34
Rp35
.