ccopy_reg
_reconstructor
p0
(cscipy.optimize.optimize
OptimizeResult
p1
c__builtin__
dict
p2
(dp3
S'status'
p4
I0
sS'nhev'
p5
I13
sS'success'
p6
I01
sS'jac'
p7
cnumpy.core.multiarray
_reconstruct
p8
(cnumpy
ndarray
p9
(I0
tp10
S'b'
p11
tp12
Rp13
(I1
(I3
tp14
cnumpy
dtype
p15
(S'f8'
p16
I0
I1
tp17
Rp18
(I3
S'<'
p19
NNNI-1
I-1
I0
tp20
bI00
S'\xacs1\x06\xef\xe9\x07?\x07\xb5\xac\x9e\xb9\xdb\x06\xbf\xa0\xbdIh\xfah\xea\xbe'
p21
tp22
bsS'nfev'
p23
I17
sS'fun'
p24
cnumpy.core.multiarray
scalar
p25
(g18
S'\xac\xbf\xc3\\\x88n\xdb?'
p26
tp27
Rp28
sS'x'
p29
g8
(g9
(I0
tp30
g11
tp31
Rp32
(I1
(I3
tp33
g18
I00
S'\xdb\xf7\rYrO\xf5\xbf}\xb9E\xd5A\xe9!@\xe5/d\xdc84\x13@'
p34
tp35
bsS'message'
p36
S'Optimization terminated successfully.'
p37
sS'hess'
p38
g8
(g9
(I0
tp39
g11
tp40
Rp41
(I1
(I3
I3
tp42
g18
I00
S'\xa9\x89G\x13\t~T@f\xfdY\x86CTB@\xd6\n\xc3DSTR\xc0f\xfdY\x86CTB@J\xe4\x03\xcd0y0@\xbd:Zq\x90x@\xc0\xd6\n\xc3DSTR\xc0\xbd:Zq\x90x@\xc0\xeb\xe6\r\xff\xa7xP@'
p43
tp44
bsS'njev'
p45
I14
sS'nit'
p46
I16
stp47
Rp48
.