ccopy_reg
_reconstructor
p0
(cscipy.optimize.optimize
OptimizeResult
p1
c__builtin__
dict
p2
(dp3
S'status'
p4
I0
sS'success'
p5
I01
sS'jac'
p6
cnumpy.core.multiarray
_reconstruct
p7
(cnumpy
ndarray
p8
(I0
tp9
S'b'
p10
tp11
Rp12
(I1
(I3
tp13
cnumpy
dtype
p14
(S'f8'
p15
I0
I1
tp16
Rp17
(I3
S'<'
p18
NNNI-1
I-1
I0
tp19
bI00
S'\xf2\xca\xb6\xb1r\\"\xbf \xc6\xf7!kZ\xaa>\xc0pi\x8ft\x93\x19?'
p20
tp21
bsS'nfev'
p22
I32
sS'fun'
p23
F0.42862323049302586
sS'x'
p24
g7
(g8
(I0
tp25
g10
tp26
Rp27
(I1
(I3
tp28
g17
I00
S'\xdfD\xae\xfc\\Q\xf5\xbf\x0e\xc0Iy\xc7\x84\x19@X}\x14\xbf\xa7\x19\x0c@'
p29
tp30
bsS'message'
p31
S'Optimization terminated successfully.'
p32
sS'nhev'
p33
I20
sS'njev'
p34
I51
stp35
Rp36
.