ccopy_reg
_reconstructor
p0
(cscipy.optimize.optimize
OptimizeResult
p1
c__builtin__
dict
p2
(dp3
S'status'
p4
I3
sS'nhev'
p5
I1
sS'success'
p6
I00
sS'jac'
p7
cnumpy.core.multiarray
_reconstruct
p8
(cnumpy
ndarray
p9
(I0
tp10
S'b'
p11
tp12
Rp13
(I1
(I3
tp14
cnumpy
dtype
p15
(S'f8'
p16
I0
I1
tp17
Rp18
(I3
S'<'
p19
NNNI-1
I-1
I0
tp20
bI00
S'(\xdd\xdbr )K@i\xda\xea\xa1\xec\x92:@R\xee\x84\x1a\xe1\x92J\xc0'
p21
tp22
bsS'nfev'
p23
I1
sS'fun'
p24
cnumpy.core.multiarray
scalar
p25
(g18
S'R\t\xd9P^3+@'
p26
tp27
Rp28
sS'x'
p29
g8
(g9
(I0
tp30
g11
tp31
Rp32
(I1
(I3
tp33
g18
I00
S'\xe0\xdat\xeb\xda\x8c\xca\xbf\xf3\x96\xbfk\xc8B\x1e@\x8c<\xccj~\t\x13@'
p34
tp35
bsS'message'
p36
S'A linalg error occurred, such as a non-psd Hessian.'
p37
sS'hess'
p38
g8
(g9
(I0
tp39
g11
tp40
Rp41
(I1
(I3
I3
tp42
g18
I00
S'^-\x84`\xfa=Z@\x85 \xd7\xe0\xb3\xd0I@M\x15a\xf0\xc0\xd1Y\xc0\x85 \xd7\xe0\xb3\xd0I@\xc6?\x1a\xd2i\xc28@i=P\xdd`\xc1H\xc0M\x15a\xf0\xc0\xd1Y\xc0i=P\xdd`\xc1H\xc0\xabt\xcbou\xc0X@'
p43
tp44
bsS'njev'
p45
I1
sS'nit'
p46
I0
stp47
Rp48
.