ccopy_reg
_reconstructor
p0
(cscipy.optimize.optimize
OptimizeResult
p1
c__builtin__
dict
p2
(dp3
S'status'
p4
I2
sS'success'
p5
I01
sS'nfev'
p6
I25
sS'fun'
p7
cnumpy.core.multiarray
scalar
p8
(cnumpy
dtype
p9
(S'f8'
p10
I0
I1
tp11
Rp12
(I3
S'<'
p13
NNNI-1
I-1
I0
tp14
bS'\xc4\xedb\xda<\x8c\xdb?'
p15
tp16
Rp17
sS'x'
p18
cnumpy.core.multiarray
_reconstruct
p19
(cnumpy
ndarray
p20
(I0
tp21
S'b'
p22
tp23
Rp24
(I1
(I3
tp25
g12
I00
S'\xa1\xc8\xea\xe1V\xac\xf3\xbf\xbd\x9c#\xd5\xe6\xe4 @P\x8d\xbc\xd2\xf9\xa0\x12@'
p26
tp27
bsS'message'
p28
S'Converged (|x_n-x_(n-1)| ~= 0)'
p29
sS'jac'
p30
g19
(g20
(I0
tp31
g22
tp32
Rp33
(I1
(I3
tp34
g12
I00
S'\xf5\x96\xe2\x0b\x93j\xc8?ZS\x88\xcf\xe1\xf6\xb2?\xc6\xb3>B@\xf8\xc2\xbf'
p35
tp36
bsS'nit'
p37
I4
stp38
Rp39
.