ccopy_reg
_reconstructor
p0
(cscipy.optimize.optimize
OptimizeResult
p1
c__builtin__
dict
p2
(dp3
S'status'
p4
I2
sS'success'
p5
I01
sS'nfev'
p6
I44
sS'fun'
p7
cnumpy.core.multiarray
scalar
p8
(cnumpy
dtype
p9
(S'f8'
p10
I0
I1
tp11
Rp12
(I3
S'<'
p13
NNNI-1
I-1
I0
tp14
bS'\x82\x1d\xa7\x10\xd3m\xdf?'
p15
tp16
Rp17
sS'x'
p18
cnumpy.core.multiarray
_reconstruct
p19
(cnumpy
ndarray
p20
(I0
tp21
S'b'
p22
tp23
Rp24
(I1
(I3
tp25
g12
I00
S"\xf8\xc8\xb3{\x9c\xfa\xfa\xbfn\x9f\xd3\xd3\x1a\x9b\x1c@\xbc\xbe\xd5\x13'\xa9\x0b@"
p26
tp27
bsS'message'
p28
S'Converged (|x_n-x_(n-1)| ~= 0)'
p29
sS'jac'
p30
g19
(g20
(I0
tp31
g22
tp32
Rp33
(I1
(I3
tp34
g12
I00
S'\x87\x8bBZB\xb7\xf5?\x00\xde:BZf\xe5?\x9b\x07\xa9\xdadf\xf5\xbf'
p35
tp36
bsS'nit'
p37
I8
stp38
Rp39
.