ccopy_reg
_reconstructor
p0
(cscipy.optimize.optimize
OptimizeResult
p1
c__builtin__
dict
p2
(dp3
S'status'
p4
I2
sS'nhev'
p5
I8
sS'success'
p6
I00
sS'jac'
p7
cnumpy.core.multiarray
_reconstruct
p8
(cnumpy
ndarray
p9
(I0
tp10
S'b'
p11
tp12
Rp13
(I1
(I3
tp14
cnumpy
dtype
p15
(S'f8'
p16
I0
I1
tp17
Rp18
(I3
S'<'
p19
NNNI-1
I-1
I0
tp20
bI00
S'\xb0\x08\xba\x1c\x0c\xe7\x16\xbf\xb9\x16\xc6Y$F\xee\xbe\xe5\xf79\xe5!\x1c\n\xbf'
p21
tp22
bsS'nfev'
p23
I31
sS'fun'
p24
cnumpy.core.multiarray
scalar
p25
(g18
S"\xf2'\xdb\x1c\x8en\xdb?"
p26
tp27
Rp28
sS'x'
p29
g8
(g9
(I0
tp30
g11
tp31
Rp32
(I1
(I3
tp33
g18
I00
S'\xb6s\xfc\x14wS\xf5\xbf\xc7C\x03\xe1\xd1\xf4\x19@\xc7\xc9\xd2H\x86\x88\x0c@'
p34
tp35
bsS'message'
p36
S'A bad approximation caused failure to predict improvement.'
p37
sS'hess'
p38
g8
(g9
(I0
tp39
g11
tp40
Rp41
(I1
(I3
I3
tp42
g18
I00
S'\xa8=\xe7V\xe9}T@\x040sdQSB@\x98Lr^{SR\xc0\x040sdQSB@ 1\xa3\n\x99v0@1\x17F\x0b\xe2v@\xc0\x98Lr^{SR\xc01\x17F\x0b\xe2v@\xc0\x10B\xfc%\xa6vP@'
p43
tp44
bsS'njev'
p45
I8
sS'nit'
p46
I29
stp47
Rp48
.