ccopy_reg
_reconstructor
p0
(cscipy.optimize.optimize
OptimizeResult
p1
c__builtin__
dict
p2
(dp3
S'status'
p4
I2
sS'nhev'
p5
I18
sS'success'
p6
I00
sS'jac'
p7
cnumpy.core.multiarray
_reconstruct
p8
(cnumpy
ndarray
p9
(I0
tp10
S'b'
p11
tp12
Rp13
(I1
(I3
tp14
cnumpy
dtype
p15
(S'f8'
p16
I0
I1
tp17
Rp18
(I3
S'<'
p19
NNNI-1
I-1
I0
tp20
bI00
S'\xabsR\xc2\xd5}\x1f\xbf+\xb3\xf7e\x11E\xf4>\xf0U\xe5\x18\x8e\x08\x14\xbf'
p21
tp22
bsS'nfev'
p23
I44
sS'fun'
p24
cnumpy.core.multiarray
scalar
p25
(g18
S'\x17b\x95\xb6\x99n\xdb?'
p26
tp27
Rp28
sS'x'
p29
g8
(g9
(I0
tp30
g11
tp31
Rp32
(I1
(I3
tp33
g18
I00
S'\xb3\x858\xf6kS\xf5\xbfo\x92<Q\xa4\xb3\x16@\x8fpx\\dG\t@'
p34
tp35
bsS'message'
p36
S'A bad approximation caused failure to predict improvement.'
p37
sS'hess'
p38
g8
(g9
(I0
tp39
g11
tp40
Rp41
(I1
(I3
I3
tp42
g18
I00
S'U$\x19\xfc\xb5}T@\r\x06\xf2\xca\xfeRB@6\x8b=\xe8\xfaRR\xc0\r\x06\xf2\xca\xfeRB@I\xbf\xefv\xb9v0@\xa1R\x8fLVv@\xc06\x8b=\xe8\xfaRR\xc0\xa1R\x8fLVv@\xc0\xd1\x01\xafeRvP@'
p43
tp44
bsS'njev'
p45
I18
sS'nit'
p46
I42
stp47
Rp48
.