ccopy_reg
_reconstructor
p0
(cscipy.optimize.optimize
OptimizeResult
p1
c__builtin__
dict
p2
(dp3
S'status'
p4
I2
sS'success'
p5
I01
sS'nfev'
p6
I35
sS'fun'
p7
cnumpy.core.multiarray
scalar
p8
(cnumpy
dtype
p9
(S'f8'
p10
I0
I1
tp11
Rp12
(I3
S'<'
p13
NNNI-1
I-1
I0
tp14
bS'\x90\xd6y\x1a\xc3\xb1\xdf?'
p15
tp16
Rp17
sS'x'
p18
cnumpy.core.multiarray
_reconstruct
p19
(cnumpy
ndarray
p20
(I0
tp21
S'b'
p22
tp23
Rp24
(I1
(I3
tp25
g12
I00
S'p\x83ug\x86\xc7\xfb\xbfj\xe1\x84F\xcf\x01\x1a@.\x1e\xab\xe5E\xb4\x08@'
p26
tp27
bsS'message'
p28
S'Converged (|x_n-x_(n-1)| ~= 0)'
p29
sS'jac'
p30
g19
(g20
(I0
tp31
g22
tp32
Rp33
(I1
(I3
tp34
g12
I00
S'H\x9a}u\xba\xca\xb7\xbfd\xc9\xfe\xbe\x15\x9e\xc1?\x08\x9e\xcb\xc8\x99\xa1\xd1\xbf'
p35
tp36
bsS'nit'
p37
I7
stp38
Rp39
.