ccopy_reg
_reconstructor
p0
(cscipy.optimize.optimize
OptimizeResult
p1
c__builtin__
dict
p2
(dp3
S'status'
p4
I2
sS'nhev'
p5
I17
sS'success'
p6
I00
sS'jac'
p7
cnumpy.core.multiarray
_reconstruct
p8
(cnumpy
ndarray
p9
(I0
tp10
S'b'
p11
tp12
Rp13
(I1
(I3
tp14
cnumpy
dtype
p15
(S'f8'
p16
I0
I1
tp17
Rp18
(I3
S'<'
p19
NNNI-1
I-1
I0
tp20
bI00
S'\xb8Z+\xf3\xf2Z\x0e\xbf\xd7m\x85\x13\xe7\x8d\x0f\xbf\xd8g\x08|\x18 %?'
p21
tp22
bsS'nfev'
p23
I42
sS'fun'
p24
cnumpy.core.multiarray
scalar
p25
(g18
S'\x0c\xe85!\x8bn\xdb?'
p26
tp27
Rp28
sS'x'
p29
g8
(g9
(I0
tp30
g11
tp31
Rp32
(I1
(I3
tp33
g18
I00
S'\xcdm\xb5\xe0\xf1O\xf5\xbf\xc8(\xe0`\xb9^\x1d@\x81\xdb\x8bEb\xf4\x0f@'
p34
tp35
bsS'message'
p36
S'A bad approximation caused failure to predict improvement.'
p37
sS'hess'
p38
g8
(g9
(I0
tp39
g11
tp40
Rp41
(I1
(I3
I3
tp42
g18
I00
S'\xd3\xa9\x14\xf79}T@\xa5\x16\xe3Q3TB@C\xc5\\\xe3\x1eTR\xc0\xa5\x16\xe3Q3TB@\xb9\x04q\xe1Px0@\xd9s\x01\xe0Kx@\xc0C\xc5\\\xe3\x1eTR\xc0\xd9s\x01\xe0Kx@\xc0L\xc1\x164=xP@'
p43
tp44
bsS'njev'
p45
I17
sS'nit'
p46
I40
stp47
Rp48
.