ccopy_reg
_reconstructor
p0
(cscipy.optimize.optimize
OptimizeResult
p1
c__builtin__
dict
p2
(dp3
S'status'
p4
I0
sS'success'
p5
I01
sS'jac'
p6
cnumpy.core.multiarray
_reconstruct
p7
(cnumpy
ndarray
p8
(I0
tp9
S'b'
p10
tp11
Rp12
(I1
(I3
tp13
cnumpy
dtype
p14
(S'f8'
p15
I0
I1
tp16
Rp17
(I3
S'<'
p18
NNNI-1
I-1
I0
tp19
bI00
S'#\r\x1di=\x96d\xbf\x8e,q\x9b4`Q\xbf\x7f0"\xaa\x17\xd4`?'
p20
tp21
bsS'nfev'
p22
I28
sS'fun'
p23
cnumpy.core.multiarray
scalar
p24
(g17
S')\xe0\x17+\x8en\xdb?'
p25
tp26
Rp27
sS'x'
p28
g7
(g8
(I0
tp29
g10
tp30
Rp31
(I1
(I3
tp32
g17
I00
S'\xa0\xe2$]\xdbR\xf5\xbfQ\xb6\x8av\x12\x1e\x1e@S\xa0\xf5\xa6\x11Y\x10@'
p33
tp34
bsS'message'
p35
S'Optimization terminated successfully.'
p36
sS'nhev'
p37
I19
sS'njev'
p38
I45
stp39
Rp40
.