ccopy_reg
_reconstructor
p0
(cscipy.optimize.optimize
OptimizeResult
p1
c__builtin__
dict
p2
(dp3
S'nfev'
p4
I1450
sS'success'
p5
I01
sS'fun'
p6
cnumpy.core.multiarray
scalar
p7
(cnumpy
dtype
p8
(S'f8'
p9
I0
I1
tp10
Rp11
(I3
S'<'
p12
NNNI-1
I-1
I0
tp13
bS')B\xa1\xfb\x97p\xdb?'
p14
tp15
Rp16
sS'x'
p17
cnumpy.core.multiarray
_reconstruct
p18
(cnumpy
ndarray
p19
(I0
tp20
S'b'
p21
tp22
Rp23
(I1
(I3
tp24
g11
I00
S' \x06n!x\xe8\xf4\xbf:\xe8\x9a\xd6\xa5\x8a\x1a@Jp\x1a\x98\x94Z\r@'
p25
tp26
bsS'message'
p27
S'Optimization terminated successfully.'
p28
sS'jac'
p29
g18
(g19
(I0
tp30
g21
tp31
Rp32
(I1
(I3
tp33
g11
I00
S'\xf2\x1b\x97\xd8\xaaq@@\xfb|\xd6\xe8\xd0\xd6V@OA\x9d\x95\xef\xcdP@'
p34
tp35
bsS'nit'
p36
I25
stp37
Rp38
.