ccopy_reg
_reconstructor
p0
(cscipy.optimize.optimize
OptimizeResult
p1
c__builtin__
dict
p2
(dp3
S'status'
p4
I0
sS'success'
p5
I01
sS'jac'
p6
cnumpy.core.multiarray
_reconstruct
p7
(cnumpy
ndarray
p8
(I0
tp9
S'b'
p10
tp11
Rp12
(I1
(I3
tp13
cnumpy
dtype
p14
(S'f8'
p15
I0
I1
tp16
Rp17
(I3
S'<'
p18
NNNI-1
I-1
I0
tp19
bI00
S'\xef\x0eE\x074\x96\x82\xbf4#\xcad\x07Jo\xbf\xe1A\xf2\xaf\xa4\x03\x80?'
p20
tp21
bsS'nfev'
p22
I27
sS'fun'
p23
F0.4286237809798576
sS'x'
p24
g7
(g8
(I0
tp25
g10
tp26
Rp27
(I1
(I3
tp28
g17
I00
S'\xad_\x9e\xf8lX\xf5\xbf\xfc\x13\xd5\x95\x99\xfc\x19@y)\x91F\xbe\x8d\x0c@'
p29
tp30
bsS'message'
p31
S'Optimization terminated successfully.'
p32
sS'nhev'
p33
I20
sS'njev'
p34
I46
stp35
Rp36
.