ccopy_reg
_reconstructor
p0
(cscipy.optimize.optimize
OptimizeResult
p1
c__builtin__
dict
p2
(dp3
S'status'
p4
I2
sS'success'
p5
I01
sS'nfev'
p6
I77
sS'fun'
p7
cnumpy.core.multiarray
scalar
p8
(cnumpy
dtype
p9
(S'f8'
p10
I0
I1
tp11
Rp12
(I3
S'<'
p13
NNNI-1
I-1
I0
tp14
bS'\xa3\x02\x855\xb3\x96\xdc?'
p15
tp16
Rp17
sS'x'
p18
cnumpy.core.multiarray
_reconstruct
p19
(cnumpy
ndarray
p20
(I0
tp21
S'b'
p22
tp23
Rp24
(I1
(I3
tp25
g12
I00
S'\x8c\xee5I\xac?\xf9\xbf\x99S"x?\xa2\x1b@\xcd7 \x84\xc8\xf1\x0b@'
p26
tp27
bsS'message'
p28
S'Converged (|x_n-x_(n-1)| ~= 0)'
p29
sS'jac'
p30
g19
(g20
(I0
tp31
g22
tp32
Rp33
(I1
(I3
tp34
g12
I00
S"\xe7q\xc9\xbf\xdc\x02\xc0\xbfn\xa0\xf8\xd5\xd3\xdd\x97?'\xf8\xa7P\xf9\x07\xa8\xbf"
p35
tp36
bsS'nit'
p37
I10
stp38
Rp39
.