ccopy_reg
_reconstructor
p0
(cscipy.optimize.optimize
OptimizeResult
p1
c__builtin__
dict
p2
(dp3
S'status'
p4
I0
sS'success'
p5
I01
sS'jac'
p6
cnumpy.core.multiarray
_reconstruct
p7
(cnumpy
ndarray
p8
(I0
tp9
S'b'
p10
tp11
Rp12
(I1
(I3
tp13
cnumpy
dtype
p14
(S'f8'
p15
I0
I1
tp16
Rp17
(I3
S'<'
p18
NNNI-1
I-1
I0
tp19
bI00
S'UJ\x13\xf4\xf9\xf4 \xbf\x08\xb1\x14L?\xa3\x10?\xd7:2\x9a\xe2\xd6(\xbf'
p20
tp21
bsS'nfev'
p22
I20
sS'fun'
p23
F0.4286216162286689
sS'x'
p24
g7
(g8
(I0
tp25
g10
tp26
Rp27
(I1
(I3
tp28
g17
I00
S'{\x953\x81(S\xf5\xbfQ\xbdS\xe3O\x9b @\x06E\x17\x1a>\xe5\x11@'
p29
tp30
bsS'message'
p31
S'Optimization terminated successfully.'
p32
sS'nhev'
p33
I11
sS'njev'
p34
I30
stp35
Rp36
.