ccopy_reg
_reconstructor
p0
(cscipy.optimize.optimize
OptimizeResult
p1
c__builtin__
dict
p2
(dp3
S'status'
p4
I2
sS'success'
p5
I00
sS'jac'
p6
cnumpy.core.multiarray
_reconstruct
p7
(cnumpy
ndarray
p8
(I0
tp9
S'b'
p10
tp11
Rp12
(I1
(I3
tp13
cnumpy
dtype
p14
(S'f8'
p15
I0
I1
tp16
Rp17
(I3
S'<'
p18
NNNI-1
I-1
I0
tp19
bI00
S'\x86<\xd6LFQ4\xc0u\xb1Y\x9cd\x82\xf7\xbfW\xf6\x06\x85\xb5\x81\x07@'
p20
tp21
bsS'nfev'
p22
I15
sS'fun'
p23
F16.756536833796304
sS'x'
p24
g7
(g8
(I0
tp25
g10
tp26
Rp27
(I1
(I3
tp28
g17
I00
S'\xec\xee&Cj\xfb\x07\xc0\x84\xeeW\xfa\n,\x1d@\xd4\xe0O\xd5\x98\x98\x04@'
p29
tp30
bsS'message'
p31
S'Desired error not necessarily achieved due to precision loss.'
p32
sS'njev'
p33
I3
stp34
Rp35
.