ccopy_reg
_reconstructor
p0
(cscipy.optimize.optimize
OptimizeResult
p1
c__builtin__
dict
p2
(dp3
S'status'
p4
I0
sS'nhev'
p5
I14
sS'success'
p6
I01
sS'jac'
p7
cnumpy.core.multiarray
_reconstruct
p8
(cnumpy
ndarray
p9
(I0
tp10
S'b'
p11
tp12
Rp13
(I1
(I3
tp14
cnumpy
dtype
p15
(S'f8'
p16
I0
I1
tp17
Rp18
(I3
S'<'
p19
NNNI-1
I-1
I0
tp20
bI00
S'Sz\x81\x9c\xb5t\x04?]%\xe64\x0f\xa6\x03?\x86\x8f\xa2\x80\xf1\xd0\xf4\xbe'
p21
tp22
bsS'nfev'
p23
I27
sS'fun'
p24
cnumpy.core.multiarray
scalar
p25
(g18
S'\xa6\x02+\xcb\x89n\xdb?'
p26
tp27
Rp28
sS'x'
p29
g8
(g9
(I0
tp30
g11
tp31
Rp32
(I1
(I3
tp33
g18
I00
S'\xf3v\xc7^\xd8P\xf5\xbf\x02W\xe29\xab\x1f\x1e@\xfa\xc8\x1d\x19iZ\x10@'
p34
tp35
bsS'message'
p36
S'Optimization terminated successfully.'
p37
sS'hess'
p38
g8
(g9
(I0
tp39
g11
tp40
Rp41
(I1
(I3
I3
tp42
g18
I00
S'$g\xed\xd8\xf4|T@Po(\xaa\xedSB@!R\xdbwpTR\xc0Po(\xaa\xedSB@\x88\xa0\x11\x12\xc8w0@\xc3\t\x87,\xd2w@\xc0!R\xdbwpTR\xc0\xc3\t\x87,\xd2w@\xc05\x8dV\x08&xP@'
p43
tp44
bsS'njev'
p45
I15
sS'nit'
p46
I26
stp47
Rp48
.