ccopy_reg
_reconstructor
p0
(cscipy.optimize.optimize
OptimizeResult
p1
c__builtin__
dict
p2
(dp3
S'status'
p4
I2
sS'success'
p5
I00
sS'jac'
p6
cnumpy.core.multiarray
_reconstruct
p7
(cnumpy
ndarray
p8
(I0
tp9
S'b'
p10
tp11
Rp12
(I1
(I3
tp13
cnumpy
dtype
p14
(S'f8'
p15
I0
I1
tp16
Rp17
(I3
S'<'
p18
NNNI-1
I-1
I0
tp19
bI00
S'\xb7$T}\xd4OA\xbf\xf4Y\x92\xdf\x1eB,\xbfa\xae\xb68*\xe2C?'
p20
tp21
bsS'nfev'
p22
I52
sS'fun'
p23
F0.42862259471148695
sS'x'
p24
g7
(g8
(I0
tp25
g10
tp26
Rp27
(I1
(I3
tp28
g17
I00
S'\xa7\xeal\x16\xc8O\xf5\xbf\x90\xc1\xb7\x14}\x83!@\xb0_T\x08^\xce\x12@'
p29
tp30
bsS'message'
p31
S'Desired error not necessarily achieved due to precision loss.'
p32
sS'njev'
p33
I42
stp34
Rp35
.