ccopy_reg
_reconstructor
p0
(cscipy.optimize.optimize
OptimizeResult
p1
c__builtin__
dict
p2
(dp3
S'status'
p4
I0
sS'success'
p5
I01
sS'jac'
p6
cnumpy.core.multiarray
_reconstruct
p7
(cnumpy
ndarray
p8
(I0
tp9
S'b'
p10
tp11
Rp12
(I1
(I3
tp13
cnumpy
dtype
p14
(S'f8'
p15
I0
I1
tp16
Rp17
(I3
S'<'
p18
NNNI-1
I-1
I0
tp19
bI00
S'\xf2tb!\x89\xd2\x8c?B\xe0tg\xc1\x83P?&\xc5Y\x7f\xee|a\xbf'
p20
tp21
bsS'nfev'
p22
I15
sS'fun'
p23
cnumpy.core.multiarray
scalar
p24
(g17
S'\xf6,\x1b\xe7\xd2\x06\xde?'
p25
tp26
Rp27
sS'x'
p28
g7
(g8
(I0
tp29
g10
tp30
Rp31
(I1
(I3
tp32
g17
I00
S'\xfdG\xb6\xa5\xd7\xee\xa9\xbf\xafz\xc6\xa9\x00T\x17@\x9f\xb5>\xca\xe6E\x12@'
p33
tp34
bsS'message'
p35
S'Optimization terminated successfully.'
p36
sS'nhev'
p37
I3
sS'njev'
p38
I15
stp39
Rp40
.