ccopy_reg
_reconstructor
p0
(cscipy.optimize.optimize
OptimizeResult
p1
c__builtin__
dict
p2
(dp3
S'status'
p4
I1
sS'success'
p5
I01
sS'nfev'
p6
I53
sS'fun'
p7
cnumpy.core.multiarray
scalar
p8
(cnumpy
dtype
p9
(S'f8'
p10
I0
I1
tp11
Rp12
(I3
S'<'
p13
NNNI-1
I-1
I0
tp14
bS'\x82\xb1\xeb2\x9an\xdb?'
p15
tp16
Rp17
sS'x'
p18
cnumpy.core.multiarray
_reconstruct
p19
(cnumpy
ndarray
p20
(I0
tp21
S'b'
p22
tp23
Rp24
(I1
(I3
tp25
g12
I00
S'\xec\x04Y\xfa\x11C\xf5\xbf\x1c#E\x8a\xc3*\x19@T\xc5\x0c\xfc\xaa\xc7\x0b@'
p26
tp27
bsS'message'
p28
S'Converged (|f_n-f_(n-1)| ~= 0)'
p29
sS'jac'
p30
g19
(g20
(I0
tp31
g22
tp32
Rp33
(I1
(I3
tp34
g12
I00
S'\x99\x0e\x1e\xe8O\x87U\xbf(\xed\x0f\xe7\xe56R\xbf>\x13Q\xae\x1e\xa3c?'
p35
tp36
bsS'nit'
p37
I11
stp38
Rp39
.