ccopy_reg
_reconstructor
p0
(cscipy.optimize.optimize
OptimizeResult
p1
c__builtin__
dict
p2
(dp3
S'status'
p4
I2
sS'success'
p5
I00
sS'jac'
p6
cnumpy.core.multiarray
_reconstruct
p7
(cnumpy
ndarray
p8
(I0
tp9
S'b'
p10
tp11
Rp12
(I1
(I3
tp13
cnumpy
dtype
p14
(S'f8'
p15
I0
I1
tp16
Rp17
(I3
S'<'
p18
NNNI-1
I-1
I0
tp19
bI00
S'\xfe\xfd5\xcf\x06\xcd1\xc0\x0b\x1d\x841\x16\x84\x10\xc0Q\x13\xaf\x16g\x84 @'
p20
tp21
bsS'nfev'
p22
I15
sS'fun'
p23
F3.2360778368863614
sS'x'
p24
g7
(g8
(I0
tp25
g10
tp26
Rp27
(I1
(I3
tp28
g17
I00
S'\x92D\x99]\xfa\xfa\x01\xc0\xe3F\x94\xae!\xdd @\xc7\xf2,\x97\xb53\r@'
p29
tp30
bsS'message'
p31
S'Desired error not necessarily achieved due to precision loss.'
p32
sS'njev'
p33
I3
stp34
Rp35
.