ccopy_reg
_reconstructor
p0
(cscipy.optimize.optimize
OptimizeResult
p1
c__builtin__
dict
p2
(dp3
S'status'
p4
I2
sS'success'
p5
I01
sS'nfev'
p6
I47
sS'fun'
p7
cnumpy.core.multiarray
scalar
p8
(cnumpy
dtype
p9
(S'f8'
p10
I0
I1
tp11
Rp12
(I3
S'<'
p13
NNNI-1
I-1
I0
tp14
bS'\x86\xaa\xca\xa0\x9d\n\xde?'
p15
tp16
Rp17
sS'x'
p18
cnumpy.core.multiarray
_reconstruct
p19
(cnumpy
ndarray
p20
(I0
tp21
S'b'
p22
tp23
Rp24
(I1
(I3
tp25
g12
I00
S'L\xfe\t\xe7\xc2\xc8\x9f\xbf\xaa\x06\xb8\xf8\xb9\xbe\x17@\xcbx*\x9d\x00\x90\x12@'
p26
tp27
bsS'message'
p28
S'Converged (|x_n-x_(n-1)| ~= 0)'
p29
sS'jac'
p30
g19
(g20
(I0
tp31
g22
tp32
Rp33
(I1
(I3
tp34
g12
I00
S'\xa1UNM\xfd/\x9d\xbf\xa3\x0e\x98\xc6\x08J\x94\xbf\x04\x18g\xcc0W\xa4?'
p35
tp36
bsS'nit'
p37
I5
stp38
Rp39
.