ccopy_reg
_reconstructor
p0
(cscipy.optimize.optimize
OptimizeResult
p1
c__builtin__
dict
p2
(dp3
S'status'
p4
I2
sS'nhev'
p5
I22
sS'success'
p6
I00
sS'jac'
p7
cnumpy.core.multiarray
_reconstruct
p8
(cnumpy
ndarray
p9
(I0
tp10
S'b'
p11
tp12
Rp13
(I1
(I3
tp14
cnumpy
dtype
p15
(S'f8'
p16
I0
I1
tp17
Rp18
(I3
S'<'
p19
NNNI-1
I-1
I0
tp20
bI00
S'\x82Z\xd6K\x01|0?\xfbz_N\x84\x12\x0b?\x88lg\xae\xef\xc6\x07\xbf'
p21
tp22
bsS'nfev'
p23
I49
sS'fun'
p24
cnumpy.core.multiarray
scalar
p25
(g18
S'\x18\x0e\xa9\xec\x88n\xdb?'
p26
tp27
Rp28
sS'x'
p29
g8
(g9
(I0
tp30
g11
tp31
Rp32
(I1
(I3
tp33
g18
I00
S'\xdb\xb3|\xafXO\xf5\xbf\x92\xbb\x8bz\x9dn\x1d@\xbeK\xd6\xebL\x02\x10@'
p34
tp35
bsS'message'
p36
S'A bad approximation caused failure to predict improvement.'
p37
sS'hess'
p38
g8
(g9
(I0
tp39
g11
tp40
Rp41
(I1
(I3
I3
tp42
g18
I00
S'|}\xda\xdf\xd9}T@\xe0\xcc\xa6\x8a!TB@c\xe1?=_TR\xc0\xe0\xcc\xa6\x8a!TB@d(\xe3,qx0@[\xe3\xc6\x0bkx@\xc0c\xe1?=_TR\xc0[\xe3\xc6\x0bkx@\xc0s\x18\xd0l[xP@'
p43
tp44
bsS'njev'
p45
I22
sS'nit'
p46
I47
stp47
Rp48
.