ccopy_reg
_reconstructor
p0
(cscipy.optimize.optimize
OptimizeResult
p1
c__builtin__
dict
p2
(dp3
S'status'
p4
I3
sS'nhev'
p5
I1
sS'success'
p6
I00
sS'jac'
p7
cnumpy.core.multiarray
_reconstruct
p8
(cnumpy
ndarray
p9
(I0
tp10
S'b'
p11
tp12
Rp13
(I1
(I3
tp14
cnumpy
dtype
p15
(S'f8'
p16
I0
I1
tp17
Rp18
(I3
S'<'
p19
NNNI-1
I-1
I0
tp20
bI00
S'L\x91\x85(B\xb3E@W(\xa4\xae\r\x95&@GCRg\x8f\x946\xc0'
p21
tp22
bsS'nfev'
p23
I1
sS'fun'
p24
cnumpy.core.multiarray
scalar
p25
(g18
S'\xb9\xaa\xb5\xfbtjP@'
p26
tp27
Rp28
sS'x'
p29
g8
(g9
(I0
tp30
g11
tp31
Rp32
(I1
(I3
tp33
g18
I00
S'\xc8\x7fh<|2\xec\xbf>\r\xf2=\xea\xa9\x1f@82\x19\x1a!e\t@'
p34
tp35
bsS'message'
p36
S'A linalg error occurred, such as a non-psd Hessian.'
p37
sS'hess'
p38
g8
(g9
(I0
tp39
g11
tp40
Rp41
(I1
(I3
I3
tp42
g18
I00
S'\n\x8a&\xa9C<U\xc0\xf6\xf0\x81.<\t9\xc0\xaf\xf0\xae\xd94\nI@\xf6\xf0\x81.<\t9\xc0l\xd5\xd0\xfd\xecg*\xc0\xfcc\xeaD\x1cg:@\xaf\xf0\xae\xd94\nI@\xfcc\xeaD\x1cg:@\xfa\x8a\x02BAgJ\xc0'
p43
tp44
bsS'njev'
p45
I1
sS'nit'
p46
I0
stp47
Rp48
.