ccopy_reg
_reconstructor
p0
(cscipy.optimize.optimize
OptimizeResult
p1
c__builtin__
dict
p2
(dp3
S'status'
p4
I0
sS'nhev'
p5
I15
sS'success'
p6
I01
sS'jac'
p7
cnumpy.core.multiarray
_reconstruct
p8
(cnumpy
ndarray
p9
(I0
tp10
S'b'
p11
tp12
Rp13
(I1
(I3
tp14
cnumpy
dtype
p15
(S'f8'
p16
I0
I1
tp17
Rp18
(I3
S'<'
p19
NNNI-1
I-1
I0
tp20
bI00
S'\xb8\xa78\xee\xa3%\xbd>\x80-:[z\x8f\xb8\xbe\xee=_\x7f\xbd\x9d\x05?'
p21
tp22
bsS'nfev'
p23
I20
sS'fun'
p24
cnumpy.core.multiarray
scalar
p25
(g18
S'a\xf8&\x1b\x8bn\xdb?'
p26
tp27
Rp28
sS'x'
p29
g8
(g9
(I0
tp30
g11
tp31
Rp32
(I1
(I3
tp33
g18
I00
S"\x18}\x1c\xba\x9dP\xf5\xbf\xd27`b'\xde\x1d@\x99\xef\xa5\xd6\xb79\x10@"
p34
tp35
bsS'message'
p36
S'Optimization terminated successfully.'
p37
sS'hess'
p38
g8
(g9
(I0
tp39
g11
tp40
Rp41
(I1
(I3
I3
tp42
g18
I00
S'\xc4}g/K~T@^c\xafQ\xfdSB@\xdc#$\x90\x0eTR\xc0^c\xafQ\xfdSB@/X}\xb1\xe5w0@\xd0v\x03\xe0\xd8w@\xc0\xdc#$\x90\x0eTR\xc0\xd0v\x03\xe0\xd8w@\xc0\x0b\x85U\xf5\xffwP@'
p43
tp44
bsS'njev'
p45
I16
sS'nit'
p46
I19
stp47
Rp48
.