ccopy_reg
_reconstructor
p0
(cscipy.optimize.optimize
OptimizeResult
p1
c__builtin__
dict
p2
(dp3
S'nfev'
p4
I1397
sS'success'
p5
I01
sS'fun'
p6
cnumpy.core.multiarray
scalar
p7
(cnumpy
dtype
p8
(S'f8'
p9
I0
I1
tp10
Rp11
(I3
S'<'
p12
NNNI-1
I-1
I0
tp13
bS'\xa6\xd2\x03\xec\xd6n\xdb?'
p14
tp15
Rp16
sS'x'
p17
cnumpy.core.multiarray
_reconstruct
p18
(cnumpy
ndarray
p19
(I0
tp20
S'b'
p21
tp22
Rp23
(I1
(I3
tp24
g11
I00
S'\xf8\xf59I\x9ck\xf5\xbf\xbd\x03\xbc\xdfR\x9d\x1a@V\xae^\xd9\x81"\r@'
p25
tp26
bsS'message'
p27
S'Optimization terminated successfully.'
p28
sS'nit'
p29
I24
stp30
Rp31
.