ccopy_reg
_reconstructor
p0
(cscipy.optimize.optimize
OptimizeResult
p1
c__builtin__
dict
p2
(dp3
S'status'
p4
I0
sS'success'
p5
I01
sS'jac'
p6
cnumpy.core.multiarray
_reconstruct
p7
(cnumpy
ndarray
p8
(I0
tp9
S'b'
p10
tp11
Rp12
(I1
(I3
tp13
cnumpy
dtype
p14
(S'f8'
p15
I0
I1
tp16
Rp17
(I3
S'<'
p18
NNNI-1
I-1
I0
tp19
bI00
S'\xf4\xdfP\x10\xf6#+\xbf\x04\xf1T;\xf5\xa4\x19\xbf\xc5\xb6\x14]mp(?'
p20
tp21
bsS'nfev'
p22
I45
sS'fun'
p23
cnumpy.core.multiarray
scalar
p24
(g17
S'\xba\xa6\xb4\xc2\x8bn\xdb?'
p25
tp26
Rp27
sS'x'
p28
g7
(g8
(I0
tp29
g10
tp30
Rp31
(I1
(I3
tp32
g17
I00
S'\x9d\xe8\x89"\xf8Q\xf5\xbf\x00\x80a\x05t]\x1e@s\xd6\x91\xd7\xfdx\x10@'
p33
tp34
bsS'message'
p35
S'Optimization terminated successfully.'
p36
sS'nhev'
p37
I36
sS'njev'
p38
I79
stp39
Rp40
.