ccopy_reg
_reconstructor
p0
(cscipy.optimize.optimize
OptimizeResult
p1
c__builtin__
dict
p2
(dp3
S'status'
p4
I2
sS'success'
p5
I00
sS'jac'
p6
cnumpy.core.multiarray
_reconstruct
p7
(cnumpy
ndarray
p8
(I0
tp9
S'b'
p10
tp11
Rp12
(I1
(I3
tp13
cnumpy
dtype
p14
(S'f8'
p15
I0
I1
tp16
Rp17
(I3
S'<'
p18
NNNI-1
I-1
I0
tp19
bI00
S'\xc9Yj\x1fw\xfe\x16?\x04\xae)\x9e\xf7\x04\xfe>\xb3\xc5\x03\x89y\xa1\x12?'
p20
tp21
bsS'nfev'
p22
I62
sS'fun'
p23
F0.4286217753597426
sS'x'
p24
g7
(g8
(I0
tp25
g10
tp26
Rp27
(I1
(I3
tp28
g17
I00
S'\x86\xd5\xa0"PP\xf5\xbf\x9ef\xc1\x03\xd2\xf1\x1d@ \xbfc\x90\xa2C\x10@'
p29
tp30
bsS'message'
p31
S'Desired error not necessarily achieved due to precision loss.'
p32
sS'njev'
p33
I45
stp34
Rp35
.