ccopy_reg
_reconstructor
p0
(cscipy.optimize.optimize
OptimizeResult
p1
c__builtin__
dict
p2
(dp3
S'status'
p4
I2
sS'success'
p5
I00
sS'jac'
p6
cnumpy.core.multiarray
_reconstruct
p7
(cnumpy
ndarray
p8
(I0
tp9
S'b'
p10
tp11
Rp12
(I1
(I3
tp13
cnumpy
dtype
p14
(S'f8'
p15
I0
I1
tp16
Rp17
(I3
S'<'
p18
NNNI-1
I-1
I0
tp19
bI00
S"K\xa4\x86\x8df\x94s\xbf'\xc3S\x874\xc5\x84\xbf\xe7\n\xffIb\xea\x94?"
p20
tp21
bsS'nfev'
p22
I51
sS'fun'
p23
cnumpy.core.multiarray
scalar
p24
(g17
S'\xc6\xe7\x9b\xc9\x98\xe5\xdd?'
p25
tp26
Rp27
sS'x'
p28
g7
(g8
(I0
tp29
g10
tp30
Rp31
(I1
(I3
tp32
g17
I00
S'\xa5\xce\xd1I\xc6\x89\xc8\xbf\xe7l\xf0\x7f\xdfW @\x06\xef\xdf\xc0|b\x16@'
p33
tp34
bsS'message'
p35
S'Desired error not necessarily achieved due to precision loss.'
p36
sS'nhev'
p37
I23
sS'njev'
p38
I59
stp39
Rp40
.