ccopy_reg
_reconstructor
p0
(cscipy.optimize.optimize
OptimizeResult
p1
c__builtin__
dict
p2
(dp3
S'status'
p4
I0
sS'success'
p5
I01
sS'jac'
p6
cnumpy.core.multiarray
_reconstruct
p7
(cnumpy
ndarray
p8
(I0
tp9
S'b'
p10
tp11
Rp12
(I1
(I3
tp13
cnumpy
dtype
p14
(S'f8'
p15
I0
I1
tp16
Rp17
(I3
S'<'
p18
NNNI-1
I-1
I0
tp19
bI00
S'=B)\xa3\x95\xc0O\xbf\xa2\x0fC\xb9V\xf8;\xbfF\x0f=\xc0"hM?'
p20
tp21
bsS'nfev'
p22
I399
sS'fun'
p23
F0.4286218409281668
sS'x'
p24
g7
(g8
(I0
tp25
g10
tp26
Rp27
(I1
(I3
tp28
g17
I00
S'\xff\xe2\x05Z\x97P\xf5\xbf\x08J\xaa\xb5\x17@!@~\x86\xa1\xa1\xbc\x8a\x12@'
p29
tp30
bsS'message'
p31
S'Optimization terminated successfully.'
p32
sS'nhev'
p33
I384
sS'njev'
p34
I782
stp35
Rp36
.