ccopy_reg
_reconstructor
p0
(cscipy.optimize.optimize
OptimizeResult
p1
c__builtin__
dict
p2
(dp3
S'status'
p4
I4
sS'success'
p5
I00
sS'nfev'
p6
I97
sS'fun'
p7
cnumpy.core.multiarray
scalar
p8
(cnumpy
dtype
p9
(S'f8'
p10
I0
I1
tp11
Rp12
(I3
S'<'
p13
NNNI-1
I-1
I0
tp14
bS'\xa1\xd4YT\xe8C\xdf?'
p15
tp16
Rp17
sS'x'
p18
cnumpy.core.multiarray
_reconstruct
p19
(cnumpy
ndarray
p20
(I0
tp21
S'b'
p22
tp23
Rp24
(I1
(I3
tp25
g12
I00
S'o\xacd\x8fT\x8f\xfb\xbf\xf2\xeb\x1e\xf0,\xe4\x1f@\xd0%\xb5\xf9\xf1\xc7\x0e@'
p26
tp27
bsS'message'
p28
S'Linear search failed'
p29
sS'jac'
p30
g19
(g20
(I0
tp31
g22
tp32
Rp33
(I1
(I3
tp34
g12
I00
S'\xa7U\xc5Fj\xda\xde\xbfC1\x9b\xea#.\x98\xbf\xff\x91\x90\xe8\\@\xa8?'
p35
tp36
bsS'nit'
p37
I4
stp38
Rp39
.