ccopy_reg
_reconstructor
p0
(cscipy.optimize.optimize
OptimizeResult
p1
c__builtin__
dict
p2
(dp3
S'status'
p4
I2
sS'success'
p5
I00
sS'jac'
p6
cnumpy.core.multiarray
_reconstruct
p7
(cnumpy
ndarray
p8
(I0
tp9
S'b'
p10
tp11
Rp12
(I1
(I3
tp13
cnumpy
dtype
p14
(S'f8'
p15
I0
I1
tp16
Rp17
(I3
S'<'
p18
NNNI-1
I-1
I0
tp19
bI00
S'\xef-\xa7\xca\xe8\x1f"\xbf\x94\x83\x19\xfa\xa6\n\xfe>\x11\xfa\xfc\xf2\x0f9\x19\xbf'
p20
tp21
bsS'nfev'
p22
I97
sS'fun'
p23
cnumpy.core.multiarray
scalar
p24
(g17
S'\x9e\x992\xc8\x8an\xdb?'
p25
tp26
Rp27
sS'x'
p28
g7
(g8
(I0
tp29
g10
tp30
Rp31
(I1
(I3
tp32
g17
I00
S'\xda<H\xb3}S\xf5\xbf\xff\xd4\xaa\x91\x89\xed\x1c@\xbfW\n}7\x81\x0f@'
p33
tp34
bsS'message'
p35
S'Desired error not necessarily achieved due to precision loss.'
p36
sS'nhev'
p37
I72
sS'njev'
p38
I154
stp39
Rp40
.