ccopy_reg
_reconstructor
p0
(cscipy.optimize.optimize
OptimizeResult
p1
c__builtin__
dict
p2
(dp3
S'status'
p4
I2
sS'success'
p5
I00
sS'jac'
p6
cnumpy.core.multiarray
_reconstruct
p7
(cnumpy
ndarray
p8
(I0
tp9
S'b'
p10
tp11
Rp12
(I1
(I3
tp13
cnumpy
dtype
p14
(S'f8'
p15
I0
I1
tp16
Rp17
(I3
S'<'
p18
NNNI-1
I-1
I0
tp19
bI00
S':\xd2\x01\xbb\x04s;?6?Y\xb0\xdan,?\x1f\x08\xe2\xea\x0cdA\xbf'
p20
tp21
bsS'nfev'
p22
I61
sS'fun'
p23
cnumpy.core.multiarray
scalar
p24
(g17
S'\x91\xccA\xd3\x8en\xdb?'
p25
tp26
Rp27
sS'x'
p28
g7
(g8
(I0
tp29
g10
tp30
Rp31
(I1
(I3
tp32
g17
I00
S';\xc1\xca\xfd\xe8Q\xf5\xbfT\xe2#\xbbQ\x04\x1a@\xa8\xe8\xda6\xe0\x98\x0c@'
p33
tp34
bsS'message'
p35
S'Desired error not necessarily achieved due to precision loss.'
p36
sS'njev'
p37
I47
stp38
Rp39
.