ccopy_reg
_reconstructor
p0
(cscipy.optimize.optimize
OptimizeResult
p1
c__builtin__
dict
p2
(dp3
S'status'
p4
I2
sS'success'
p5
I00
sS'jac'
p6
cnumpy.core.multiarray
_reconstruct
p7
(cnumpy
ndarray
p8
(I0
tp9
S'b'
p10
tp11
Rp12
(I1
(I3
tp13
cnumpy
dtype
p14
(S'f8'
p15
I0
I1
tp16
Rp17
(I3
S'<'
p18
NNNI-1
I-1
I0
tp19
bI00
S'xI\xf5\xf2~\xd3\xf4\xbe\r\xcf<\xcc##\xef\xbe\xbcf\x92-\xd1-\xf1\xbe'
p20
tp21
bsS'nfev'
p22
I105
sS'hess_inv'
p23
g7
(g8
(I0
tp24
g10
tp25
Rp26
(I1
(I3
I3
tp27
g17
I00
S'5\xc3\x03wmU\x14?\t\x1c>"\xa0<\'\xbf\\\xa9Pej2$?\x08\x1c>"\xa0<\'\xbf\x11O\xa5Ku~=?$;U\x01\x1a\x117\xbf^\xa9Pej2$?%;U\x01\x1a\x117\xbf\xe3jK:{\x174?'
p28
tp29
bsS'fun'
p30
F0.4286215940231186
sS'x'
p31
g7
(g8
(I0
tp32
g10
tp33
Rp34
(I1
(I3
tp35
g17
I00
S'\x069\xc5\x99\x05Q\xf5\xbf\x1fk\xfe\xef\x0f\xdd\x1d@,4\xe5=\x0f9\x10@'
p36
tp37
bsS'message'
p38
S'Desired error not necessarily achieved due to precision loss.'
p39
sS'njev'
p40
I81
stp41
Rp42
.