ccopy_reg
_reconstructor
p0
(cscipy.optimize.optimize
OptimizeResult
p1
c__builtin__
dict
p2
(dp3
S'status'
p4
I2
sS'success'
p5
I00
sS'jac'
p6
cnumpy.core.multiarray
_reconstruct
p7
(cnumpy
ndarray
p8
(I0
tp9
S'b'
p10
tp11
Rp12
(I1
(I3
tp13
cnumpy
dtype
p14
(S'f8'
p15
I0
I1
tp16
Rp17
(I3
S'<'
p18
NNNI-1
I-1
I0
tp19
bI00
S'\\\xe4=\xaa\xa9\xf7\xc2?\xac\x93\x96\x7fM\x07\xaf?\xe8\xfa\xa4\x1d\x86\x08\xbf\xbf'
p20
tp21
bsS'nfev'
p22
I23
sS'fun'
p23
F0.4290659365880378
sS'x'
p24
g7
(g8
(I0
tp25
g10
tp26
Rp27
(I1
(I3
tp28
g17
I00
S'\xdc\x1b\xdeL\x87\x9e\xf4\xbfl\xdb\xb3\xeaD\x11\x1a@x\xe6e\xd6x\x05\r@'
p29
tp30
bsS'message'
p31
S'Desired error not necessarily achieved due to precision loss.'
p32
sS'njev'
p33
I11
stp34
Rp35
.