ccopy_reg
_reconstructor
p0
(cscipy.optimize.optimize
OptimizeResult
p1
c__builtin__
dict
p2
(dp3
S'nfev'
p4
I1416
sS'success'
p5
I01
sS'fun'
p6
cnumpy.core.multiarray
scalar
p7
(cnumpy
dtype
p8
(S'f8'
p9
I0
I1
tp10
Rp11
(I3
S'<'
p12
NNNI-1
I-1
I0
tp13
bS'>\xac\x9cA\xbdn\xdb?'
p14
tp15
Rp16
sS'x'
p17
cnumpy.core.multiarray
_reconstruct
p18
(cnumpy
ndarray
p19
(I0
tp20
S'b'
p21
tp22
Rp23
(I1
(I3
tp24
g11
I00
S'y\x18\xbd\xf4\xad^\xf5\xbf\xcd\x9bz\x90m\xa6 @\xe5\x08\xe7z\xb7\xed\x11@'
p25
tp26
bsS'message'
p27
S'Optimization terminated successfully.'
p28
sS'jac'
p29
g18
(g19
(I0
tp30
g21
tp31
Rp32
(I1
(I3
tp33
g11
I00
S'\xbf\xb0\xfaM\x9c\xdaQ@d]\x98\xfa\x0ecA@\x008\xb3\xc6\xbe*\xa4?'
p34
tp35
bsS'nit'
p36
I23
stp37
Rp38
.