ccopy_reg
_reconstructor
p0
(cscipy.optimize.optimize
OptimizeResult
p1
c__builtin__
dict
p2
(dp3
S'status'
p4
I2
sS'nhev'
p5
I19
sS'success'
p6
I00
sS'jac'
p7
cnumpy.core.multiarray
_reconstruct
p8
(cnumpy
ndarray
p9
(I0
tp10
S'b'
p11
tp12
Rp13
(I1
(I3
tp14
cnumpy
dtype
p15
(S'f8'
p16
I0
I1
tp17
Rp18
(I3
S'<'
p19
NNNI-1
I-1
I0
tp20
bI00
S'\xe9@-}\xfd\x929\xbf\\\rro\xe7\xd1+\xbf\x92\xdb*cS\x08??'
p21
tp22
bsS'nfev'
p23
I45
sS'fun'
p24
cnumpy.core.multiarray
scalar
p25
(g18
S'\xf6\xe9\x02*\x8an\xdb?'
p26
tp27
Rp28
sS'x'
p29
g8
(g9
(I0
tp30
g11
tp31
Rp32
(I1
(I3
tp33
g18
I00
S'\x17\xeci\x97\xf4O\xf5\xbf\x1aZ\x9d\xdf\xeaO!@$\x03\x01\x08\xbf\x9a\x12@'
p34
tp35
bsS'message'
p36
S'A bad approximation caused failure to predict improvement.'
p37
sS'hess'
p38
g8
(g9
(I0
tp39
g11
tp40
Rp41
(I1
(I3
I3
tp42
g18
I00
S'\x13\xec\xec\xe6\xda}T@aO1X"TB@\tR{\xfe/TR\xc0aO1X"TB@\xbf\xd4\x07A>x0@\xd5M\x04\x05\xe6x@\xc0\tR{\xfe/TR\xc0\xd5M\x04\x05\xe6x@\xc0\x89\xdfU\x07DxP@'
p43
tp44
bsS'njev'
p45
I19
sS'nit'
p46
I43
stp47
Rp48
.