ccopy_reg
_reconstructor
p0
(cscipy.optimize.optimize
OptimizeResult
p1
c__builtin__
dict
p2
(dp3
S'status'
p4
I2
sS'nhev'
p5
I18
sS'success'
p6
I00
sS'jac'
p7
cnumpy.core.multiarray
_reconstruct
p8
(cnumpy
ndarray
p9
(I0
tp10
S'b'
p11
tp12
Rp13
(I1
(I3
tp14
cnumpy
dtype
p15
(S'f8'
p16
I0
I1
tp17
Rp18
(I3
S'<'
p19
NNNI-1
I-1
I0
tp20
bI00
S'\x81?\x16\xfbxuZ\xbf\xcb\xb6\xf2O,\x95E\xbf\xca\x1ay\xe5N\xdbW?'
p21
tp22
bsS'nfev'
p23
I46
sS'fun'
p24
cnumpy.core.multiarray
scalar
p25
(g18
S'j\x1b\x1f\xc7\x89n\xdb?'
p26
tp27
Rp28
sS'x'
p29
g8
(g9
(I0
tp30
g11
tp31
Rp32
(I1
(I3
tp33
g18
I00
S'\x93)\xba\xde\xaaR\xf5\xbf%}{\xb0\x9e\xec\x1b@\xfe\x9e\x85j\xce\x80\x0e@'
p34
tp35
bsS'message'
p36
S'A bad approximation caused failure to predict improvement.'
p37
sS'hess'
p38
g8
(g9
(I0
tp39
g11
tp40
Rp41
(I1
(I3
I3
tp42
g18
I00
S'\xa1\x8e#s\x0b~T@\xf3\x84\xady`SB@\xb6\xa6/\t\xf0RR\xc0\xf3\x84\xady`SB@^\xe6\x05\xd5\xcbv0@\xd7\xc7I(\nw@\xc0\xb6\xa6/\t\xf0RR\xc0\xd7\xc7I(\nw@\xc0\xb4\xdcC\xed\twP@'
p43
tp44
bsS'njev'
p45
I18
sS'nit'
p46
I44
stp47
Rp48
.