ccopy_reg
_reconstructor
p0
(cscipy.optimize.optimize
OptimizeResult
p1
c__builtin__
dict
p2
(dp3
S'status'
p4
I2
sS'nhev'
p5
I15
sS'success'
p6
I00
sS'jac'
p7
cnumpy.core.multiarray
_reconstruct
p8
(cnumpy
ndarray
p9
(I0
tp10
S'b'
p11
tp12
Rp13
(I1
(I3
tp14
cnumpy
dtype
p15
(S'f8'
p16
I0
I1
tp17
Rp18
(I3
S'<'
p19
NNNI-1
I-1
I0
tp20
bI00
S'0\xfaL\xa8\xbd\n\xbc>u\x97\x81\x96O\xfa\x10?\xa7\x196\x8c\x06\xbd!?'
p21
tp22
bsS'nfev'
p23
I39
sS'fun'
p24
cnumpy.core.multiarray
scalar
p25
(g18
S'O8\x95\xc9\x93n\xdb?'
p26
tp27
Rp28
sS'x'
p29
g8
(g9
(I0
tp30
g11
tp31
Rp32
(I1
(I3
tp33
g18
I00
S'J\xf1\x16\xfevQ\xf5\xbfq~\xb7\xfb\xb6\xe6\x17@hC\xedR\x8b{\n@'
p34
tp35
bsS'message'
p36
S'A bad approximation caused failure to predict improvement.'
p37
sS'hess'
p38
g8
(g9
(I0
tp39
g11
tp40
Rp41
(I1
(I3
I3
tp42
g18
I00
S'\xfa\x88$\x8e6~T@\x9cl\xb9\x00dSB@\xc9\xf4V7\xe1SR\xc0\x9cl\xb9\x00dSB@G\x99\\\x13Bw0@\xae\xb3\xb9\x842w@\xc0\xc9\xf4V7\xe1SR\xc0\xae\xb3\xb9\x842w@\xc0J\xd8\xa9\xdfJwP@'
p43
tp44
bsS'njev'
p45
I15
sS'nit'
p46
I37
stp47
Rp48
.