ccopy_reg
_reconstructor
p0
(cscipy.optimize.optimize
OptimizeResult
p1
c__builtin__
dict
p2
(dp3
S'nfev'
p4
I1701
sS'success'
p5
I01
sS'fun'
p6
cnumpy.core.multiarray
scalar
p7
(cnumpy
dtype
p8
(S'f8'
p9
I0
I1
tp10
Rp11
(I3
S'<'
p12
NNNI-1
I-1
I0
tp13
bS'\x81a\x8f\xeb\xa0n\xdb?'
p14
tp15
Rp16
sS'x'
p17
cnumpy.core.multiarray
_reconstruct
p18
(cnumpy
ndarray
p19
(I0
tp20
S'b'
p21
tp22
Rp23
(I1
(I3
tp24
g11
I00
S'?\x01\x15\xac7E\xf5\xbf\xf6\xc5x\xac\xb8\xfe\x1b@\n\xda\x87Z\xe3\x9a\x0e@'
p25
tp26
bsS'message'
p27
S'Optimization terminated successfully.'
p28
sS'jac'
p29
g18
(g19
(I0
tp30
g21
tp31
Rp32
(I1
(I3
tp33
g11
I00
S'_\xfc\xd4\xf3\x15\xa7a@\x9e\xe8\x9f\xbc\xe0vP@@\xfaC\xd6\xb5{\xf5?'
p34
tp35
bsS'nit'
p36
I28
stp37
Rp38
.