ccopy_reg
_reconstructor
p0
(cscipy.optimize.optimize
OptimizeResult
p1
c__builtin__
dict
p2
(dp3
S'status'
p4
I2
sS'success'
p5
I00
sS'jac'
p6
cnumpy.core.multiarray
_reconstruct
p7
(cnumpy
ndarray
p8
(I0
tp9
S'b'
p10
tp11
Rp12
(I1
(I3
tp13
cnumpy
dtype
p14
(S'f8'
p15
I0
I1
tp16
Rp17
(I3
S'<'
p18
NNNI-1
I-1
I0
tp19
bI00
S'\x1a\xef>h\xa6\xb2-\xbf\x88\xda\xfb>\x87\x9a\xe3\xbex\x01\x03v\xef&\xd2>'
p20
tp21
bsS'nfev'
p22
I51
sS'fun'
p23
cnumpy.core.multiarray
scalar
p24
(g17
S'\x1b\x14O\xcd\x90n\xdb?'
p25
tp26
Rp27
sS'x'
p28
g7
(g8
(I0
tp29
g10
tp30
Rp31
(I1
(I3
tp32
g17
I00
S'4`\tq\x84T\xf5\xbf\xaf\xb4\xc2\xae/\x98\x19@\x9e0\xe0lN+\x0c@'
p33
tp34
bsS'message'
p35
S'Desired error not necessarily achieved due to precision loss.'
p36
sS'nhev'
p37
I22
sS'njev'
p38
I59
stp39
Rp40
.