ccopy_reg
_reconstructor
p0
(cscipy.optimize.optimize
OptimizeResult
p1
c__builtin__
dict
p2
(dp3
S'status'
p4
I2
sS'success'
p5
I00
sS'jac'
p6
cnumpy.core.multiarray
_reconstruct
p7
(cnumpy
ndarray
p8
(I0
tp9
S'b'
p10
tp11
Rp12
(I1
(I3
tp13
cnumpy
dtype
p14
(S'f8'
p15
I0
I1
tp16
Rp17
(I3
S'<'
p18
NNNI-1
I-1
I0
tp19
bI00
S"),\xe4>\xffM\x0e?\xb6\xebt\x90\n\xe4\xf2>'\xe1\x043\x15\xf4\x01\xbf"
p20
tp21
bsS'nfev'
p22
I51
sS'fun'
p23
F0.4286220332278257
sS'x'
p24
g7
(g8
(I0
tp25
g10
tp26
Rp27
(I1
(I3
tp28
g17
I00
S"\xe1`\xf9r\xa1Q\xf5\xbf\x9f\x8dF\xb1]s\x1f@\n\x14\xf5'\n\x04\x11@"
p29
tp30
bsS'message'
p31
S'Desired error not necessarily achieved due to precision loss.'
p32
sS'nhev'
p33
I7
sS'njev'
p34
I47
stp35
Rp36
.