ccopy_reg
_reconstructor
p0
(cscipy.optimize.optimize
OptimizeResult
p1
c__builtin__
dict
p2
(dp3
S'status'
p4
I3
sS'success'
p5
I00
sS'nfev'
p6
I100
sS'fun'
p7
cnumpy.core.multiarray
scalar
p8
(cnumpy
dtype
p9
(S'f8'
p10
I0
I1
tp11
Rp12
(I3
S'<'
p13
NNNI-1
I-1
I0
tp14
bS'\x9fk\x1c\xb3\xe6\x97\xe0?'
p15
tp16
Rp17
sS'x'
p18
cnumpy.core.multiarray
_reconstruct
p19
(cnumpy
ndarray
p20
(I0
tp21
S'b'
p22
tp23
Rp24
(I1
(I3
tp25
g12
I00
S'\x90s\xd9\xde\xf8\x88\xfc\xbf\xe6\xb0Y\x07W\xf7\x15@0\xb4\x96\x05@6\x04@'
p26
tp27
bsS'message'
p28
S'Max. number of function evaluations reach'
p29
sS'jac'
p30
g19
(g20
(I0
tp31
g22
tp32
Rp33
(I1
(I3
tp34
g12
I00
S'&\xe0\x0b3\x889\xe3\xbf0\xa6HaQ\x0f\x87\xbf\x00\xac\xd3\xbc\x01<\x97?'
p35
tp36
bsS'nit'
p37
I11
stp38
Rp39
.