ccopy_reg
_reconstructor
p0
(cscipy.optimize.optimize
OptimizeResult
p1
c__builtin__
dict
p2
(dp3
S'status'
p4
I2
sS'nhev'
p5
I16
sS'success'
p6
I00
sS'jac'
p7
cnumpy.core.multiarray
_reconstruct
p8
(cnumpy
ndarray
p9
(I0
tp10
S'b'
p11
tp12
Rp13
(I1
(I3
tp14
cnumpy
dtype
p15
(S'f8'
p16
I0
I1
tp17
Rp18
(I3
S'<'
p19
NNNI-1
I-1
I0
tp20
bI00
S"\xa1k\x06\xc2LL9\xbftmR\xa2x\xdc'\xbf\x8d;e\xfc\x08\x8b1?"
p21
tp22
bsS'nfev'
p23
I41
sS'fun'
p24
cnumpy.core.multiarray
scalar
p25
(g18
S'\x16\xc11\x06\x89n\xdb?'
p26
tp27
Rp28
sS'x'
p29
g8
(g9
(I0
tp30
g11
tp31
Rp32
(I1
(I3
tp33
g18
I00
S'5\x11\xdc\xd3\x97Q\xf5\xbf\xe8)\xbd\x0c{\x1a @\x11\xf32C\xdad\x11@'
p34
tp35
bsS'message'
p36
S'A bad approximation caused failure to predict improvement.'
p37
sS'hess'
p38
g8
(g9
(I0
tp39
g11
tp40
Rp41
(I1
(I3
I3
tp42
g18
I00
S'\xf8D%"\x14~T@\x8fp)s\xcbSB@\xb6\x07\xa1\x82\xefSR\xc0\x8fp)s\xcbSB@\x91\xeaN\xd4\x95w0@\x03\xbaE\xa0\x86w@\xc0\xb6\x07\xa1\x82\xefSR\xc0\x03\xbaE\xa0\x86w@\xc0U\xf3\xff\x95~wP@'
p43
tp44
bsS'njev'
p45
I16
sS'nit'
p46
I39
stp47
Rp48
.