ccopy_reg
_reconstructor
p0
(cscipy.optimize.optimize
OptimizeResult
p1
c__builtin__
dict
p2
(dp3
S'status'
p4
I0
sS'success'
p5
I01
sS'jac'
p6
cnumpy.core.multiarray
_reconstruct
p7
(cnumpy
ndarray
p8
(I0
tp9
S'b'
p10
tp11
Rp12
(I1
(I3
tp13
cnumpy
dtype
p14
(S'f8'
p15
I0
I1
tp16
Rp17
(I3
S'<'
p18
NNNI-1
I-1
I0
tp19
bI00
S'[\x1b\x92\xbf\xbfFk?\xc8\x82\xcf\xc1}#1\xbf/\x06\xf4\xf8(B6?'
p20
tp21
bsS'nfev'
p22
I26
sS'fun'
p23
cnumpy.core.multiarray
scalar
p24
(g17
S'\xf0(ZuwE\xde?'
p25
tp26
Rp27
sS'x'
p28
g7
(g8
(I0
tp29
g10
tp30
Rp31
(I1
(I3
tp32
g17
I00
S'\x11{\x88\x08<\xc4\xdf?\xb9yh\x88p$\x1c@\xd0-\xcf\xccX\xe0\x16@'
p33
tp34
bsS'message'
p35
S'Optimization terminated successfully.'
p36
sS'nhev'
p37
I5
sS'njev'
p38
I28
stp39
Rp40
.