ccopy_reg
_reconstructor
p0
(cscipy.optimize.optimize
OptimizeResult
p1
c__builtin__
dict
p2
(dp3
S'status'
p4
I2
sS'success'
p5
I00
sS'jac'
p6
cnumpy.core.multiarray
_reconstruct
p7
(cnumpy
ndarray
p8
(I0
tp9
S'b'
p10
tp11
Rp12
(I1
(I3
tp13
cnumpy
dtype
p14
(S'f8'
p15
I0
I1
tp16
Rp17
(I3
S'<'
p18
NNNI-1
I-1
I0
tp19
bI00
S'\x7f$s\xcezJ\x10?|g=\x04\x01H\x10\xbf\x028\xbb\x1a\xf1b%?'
p20
tp21
bsS'nfev'
p22
I31
sS'hess_inv'
p23
g7
(g8
(I0
tp24
g10
tp25
Rp26
(I1
(I3
I3
tp27
g17
I00
S'"\xb8\x1e\x00 \xc8\x05@F]\x16r=\x1a\xf3\xbf\xbf\xcf\n\xf2qX\x03@:]\x16r=\x1a\xf3\xbf\xcb\xd412x8\xf5?-\xa1qS\x80L\xe5\xbf\xab\xcf\n\xf2qX\x03@\x1d\xa1qS\x80L\xe5\xbf2\xfb\xdcN\xc7\xd9\x02@'
p28
tp29
bsS'fun'
p30
F0.42862190152354207
sS'x'
p31
g7
(g8
(I0
tp32
g10
tp33
Rp34
(I1
(I3
tp35
g17
I00
S'v\xf0 \xb4$N\xf5\xbfptB]\x99 \x1e@\x00\x9e\xa5r\xa1[\x10@'
p36
tp37
bsS'message'
p38
S'Desired error not necessarily achieved due to precision loss.'
p39
sS'njev'
p40
I19
stp41
Rp42
.