ccopy_reg
_reconstructor
p0
(cscipy.optimize.optimize
OptimizeResult
p1
c__builtin__
dict
p2
(dp3
S'status'
p4
I2
sS'success'
p5
I01
sS'nfev'
p6
I57
sS'fun'
p7
cnumpy.core.multiarray
scalar
p8
(cnumpy
dtype
p9
(S'f8'
p10
I0
I1
tp11
Rp12
(I3
S'<'
p13
NNNI-1
I-1
I0
tp14
bS'\x10\x16\x04\tj\xf7\xdb?'
p15
tp16
Rp17
sS'x'
p18
cnumpy.core.multiarray
_reconstruct
p19
(cnumpy
ndarray
p20
(I0
tp21
S'b'
p22
tp23
Rp24
(I1
(I3
tp25
g12
I00
S'\x15\x08\xb0\xd9\xd5#\xf1\xbf\xfd\xbf\xecT\xd5X\x18@(\xceg<\x1f8\r@'
p26
tp27
bsS'message'
p28
S'Converged (|x_n-x_(n-1)| ~= 0)'
p29
sS'jac'
p30
g19
(g20
(I0
tp31
g22
tp32
Rp33
(I1
(I3
tp34
g12
I00
S'\x9b\xf4\x9c\x85\x86\xb0\xc5\xbf|k[@\x01)\xba\xbf4w_!w\x1b\xca?'
p35
tp36
bsS'nit'
p37
I6
stp38
Rp39
.