ccopy_reg
_reconstructor
p0
(cscipy.optimize.optimize
OptimizeResult
p1
c__builtin__
dict
p2
(dp3
S'status'
p4
I1
sS'success'
p5
I00
sS'jac'
p6
cnumpy.core.multiarray
_reconstruct
p7
(cnumpy
ndarray
p8
(I0
tp9
S'b'
p10
tp11
Rp12
(I1
(I3
tp13
cnumpy
dtype
p14
(S'f8'
p15
I0
I1
tp16
Rp17
(I3
S'<'
p18
NNNI-1
I-1
I0
tp19
bI00
S'\x1c!\xafb \xd1\x80?\x81\xaerR\xe8j\x92\xbf>\xc5\xd1H+M\xa2?'
p20
tp21
bsS'nfev'
p22
I602
sS'fun'
p23
F0.44815000292262624
sS'x'
p24
g7
(g8
(I0
tp25
g10
tp26
Rp27
(I1
(I3
tp28
g17
I00
S'vm=8\xec\xa7\xea\xbf\x83\x03\x9eO\xa2\x9c\x17@\r\x87\x81Y\x92u\x0e@'
p29
tp30
bsS'message'
p31
S'Maximum number of iterations has been exceeded.'
p32
sS'nhev'
p33
I600
sS'njev'
p34
I1201
stp35
Rp36
.