ccopy_reg
_reconstructor
p0
(cscipy.optimize.optimize
OptimizeResult
p1
c__builtin__
dict
p2
(dp3
S'status'
p4
I2
sS'success'
p5
I00
sS'jac'
p6
cnumpy.core.multiarray
_reconstruct
p7
(cnumpy
ndarray
p8
(I0
tp9
S'b'
p10
tp11
Rp12
(I1
(I3
tp13
cnumpy
dtype
p14
(S'f8'
p15
I0
I1
tp16
Rp17
(I3
S'<'
p18
NNNI-1
I-1
I0
tp19
bI00
S'\x0bi\x9e\x183s\x15\xc0\x15\x11\xba0\xe4\xcc\xe6\xbf\xf1f\x9a\x90~\xce\xf6?'
p20
tp21
bsS'nfev'
p22
I15
sS'fun'
p23
F1.045172120959656
sS'x'
p24
g7
(g8
(I0
tp25
g10
tp26
Rp27
(I1
(I3
tp28
g17
I00
S'\x82\xc3\x8e\xaf\xb4 \x01\xc0$\xa3\xc7n|\xf6\x1f@\xe4\x80a`j\x0f\n@'
p29
tp30
bsS'message'
p31
S'Desired error not necessarily achieved due to precision loss.'
p32
sS'njev'
p33
I3
stp34
Rp35
.