ccopy_reg
_reconstructor
p0
(cscipy.optimize.optimize
OptimizeResult
p1
c__builtin__
dict
p2
(dp3
S'status'
p4
I0
sS'nhev'
p5
I20
sS'success'
p6
I01
sS'jac'
p7
cnumpy.core.multiarray
_reconstruct
p8
(cnumpy
ndarray
p9
(I0
tp10
S'b'
p11
tp12
Rp13
(I1
(I3
tp14
cnumpy
dtype
p15
(S'f8'
p16
I0
I1
tp17
Rp18
(I3
S'<'
p19
NNNI-1
I-1
I0
tp20
bI00
S'\x9e,\xfbW\xe4M\x10?\x02\xc2\x87L\x93R\xc1\xbeB\xcf\xf7>c\x1c\x08\xbf'
p21
tp22
bsS'nfev'
p23
I31
sS'fun'
p24
cnumpy.core.multiarray
scalar
p25
(g18
S'l\xefP\x13\x89n\xdb?'
p26
tp27
Rp28
sS'x'
p29
g8
(g9
(I0
tp30
g11
tp31
Rp32
(I1
(I3
tp33
g18
I00
S"\xc4\x15'\xb6\xf6O\xf5\xbf\x8dRX\x9ca\xf6 @j\x92M\x8f3A\x12@"
p34
tp35
bsS'message'
p36
S'Optimization terminated successfully.'
p37
sS'hess'
p38
g8
(g9
(I0
tp39
g11
tp40
Rp41
(I1
(I3
I3
tp42
g18
I00
S'V6\x1c\xbeX~T@g\x0c]\xdb;TB@\xff\x18\x00\xa6\x96TR\xc0g\x0c]\xdb;TB@y \x93\xa8ex0@A\xfe\xcd\xb5\x06x@\xc0\xff\x18\x00\xa6\x96TR\xc0A\xfe\xcd\xb5\x06x@\xc0\xf2\x12\xb1RaxP@'
p43
tp44
bsS'njev'
p45
I21
sS'nit'
p46
I30
stp47
Rp48
.