ccopy_reg
_reconstructor
p0
(cscipy.optimize.optimize
OptimizeResult
p1
c__builtin__
dict
p2
(dp3
S'status'
p4
I2
sS'success'
p5
I00
sS'jac'
p6
cnumpy.core.multiarray
_reconstruct
p7
(cnumpy
ndarray
p8
(I0
tp9
S'b'
p10
tp11
Rp12
(I1
(I3
tp13
cnumpy
dtype
p14
(S'f8'
p15
I0
I1
tp16
Rp17
(I3
S'<'
p18
NNNI-1
I-1
I0
tp19
bI00
S'bfn\xd4\x1aN\x05\xc0\xa0\x14 p\xfb\x14\xf5\xbfq\xd3\xa0*\xe9\x14\x05@'
p20
tp21
bsS'nfev'
p22
I21
sS'fun'
p23
F0.5038456649481435
sS'x'
p24
g7
(g8
(I0
tp25
g10
tp26
Rp27
(I1
(I3
tp28
g17
I00
S'va%\xfe+\xa6\xe5\xbf\x071\xd7}\xee\x13\x17@\xd4\xfe\xc8\x1f\x19\x83\x0f@'
p29
tp30
bsS'message'
p31
S'Desired error not necessarily achieved due to precision loss.'
p32
sS'njev'
p33
I9
stp34
Rp35
.