ccopy_reg
_reconstructor
p0
(cscipy.optimize.optimize
OptimizeResult
p1
c__builtin__
dict
p2
(dp3
S'status'
p4
I0
sS'nhev'
p5
I14
sS'success'
p6
I01
sS'jac'
p7
cnumpy.core.multiarray
_reconstruct
p8
(cnumpy
ndarray
p9
(I0
tp10
S'b'
p11
tp12
Rp13
(I1
(I3
tp14
cnumpy
dtype
p15
(S'f8'
p16
I0
I1
tp17
Rp18
(I3
S'<'
p19
NNNI-1
I-1
I0
tp20
bI00
S'h\x0b\xeeX\xf0z\xff>&\xbaz6gj\xf8\xbexj\r6\xd6\xed\xd7\xbe'
p21
tp22
bsS'nfev'
p23
I19
sS'fun'
p24
cnumpy.core.multiarray
scalar
p25
(g18
S'$R\x1e\xb0\x89n\xdb?'
p26
tp27
Rp28
sS'x'
p29
g8
(g9
(I0
tp30
g11
tp31
Rp32
(I1
(I3
tp33
g18
I00
S'\x8c\xbf\xa2.\x03R\xf5\xbf\x01<t(0\xed!@G\x94\xab\xf5o7\x13@'
p34
tp35
bsS'message'
p36
S'Optimization terminated successfully.'
p37
sS'hess'
p38
g8
(g9
(I0
tp39
g11
tp40
Rp41
(I1
(I3
I3
tp42
g18
I00
S'\xa7\x8c\xc3cf~T@c\xe9N9\xa4SB@\xde.\xb5\xf0\x1aTR\xc0c\xe9N9\xa4SB@\x11L\xe3\x04\x93x0@\xc5&\xdfA\x81w@\xc0\xde.\xb5\xf0\x1aTR\xc0\xc5&\xdfA\x81w@\xc0\x13\x8a\xe6\xeb2wP@'
p43
tp44
bsS'njev'
p45
I15
sS'nit'
p46
I18
stp47
Rp48
.