ccopy_reg
_reconstructor
p0
(cscipy.optimize.optimize
OptimizeResult
p1
c__builtin__
dict
p2
(dp3
S'status'
p4
I2
sS'nhev'
p5
I19
sS'success'
p6
I00
sS'jac'
p7
cnumpy.core.multiarray
_reconstruct
p8
(cnumpy
ndarray
p9
(I0
tp10
S'b'
p11
tp12
Rp13
(I1
(I3
tp14
cnumpy
dtype
p15
(S'f8'
p16
I0
I1
tp17
Rp18
(I3
S'<'
p19
NNNI-1
I-1
I0
tp20
bI00
S'-\x13&\xe0\xb5%\x14\xbf7\x142>b\x04\x1d\xbf\xd2\xfb\x98\x89\x81]!?'
p21
tp22
bsS'nfev'
p23
I44
sS'fun'
p24
cnumpy.core.multiarray
scalar
p25
(g18
S'L\xedBN\x8an\xdb?'
p26
tp27
Rp28
sS'x'
p29
g8
(g9
(I0
tp30
g11
tp31
Rp32
(I1
(I3
tp33
g18
I00
S'\xd4\x07\x89J\xd7O\xf5\xbf\xb5\x9f\xeb\xa5,\x1e\x1e@\xe7\xf8\xaen\xf2Y\x10@'
p34
tp35
bsS'message'
p36
S'A bad approximation caused failure to predict improvement.'
p37
sS'hess'
p38
g8
(g9
(I0
tp39
g11
tp40
Rp41
(I1
(I3
I3
tp42
g18
I00
S'<hA\x92\xdb}T@2\x9f%\rnTB@\x99\x9d\x9f\xc6ETR\xc02\x9f%\rnTB@\xea0\xd5-5x0@DR\xbe\xb1\xf7w@\xc0\x99\x9d\x9f\xc6ETR\xc0DR\xbe\xb1\xf7w@\xc0\xca\r$\xfb\xa2xP@'
p43
tp44
bsS'njev'
p45
I19
sS'nit'
p46
I42
stp47
Rp48
.