ccopy_reg
_reconstructor
p0
(cscipy.optimize.optimize
OptimizeResult
p1
c__builtin__
dict
p2
(dp3
S'status'
p4
I2
sS'success'
p5
I01
sS'nfev'
p6
I40
sS'fun'
p7
cnumpy.core.multiarray
scalar
p8
(cnumpy
dtype
p9
(S'f8'
p10
I0
I1
tp11
Rp12
(I3
S'<'
p13
NNNI-1
I-1
I0
tp14
bS'f\xb5\x03J\xbf\x93\xe0?'
p15
tp16
Rp17
sS'x'
p18
cnumpy.core.multiarray
_reconstruct
p19
(cnumpy
ndarray
p20
(I0
tp21
S'b'
p22
tp23
Rp24
(I1
(I3
tp25
g12
I00
S'6\xc0\xf0\xa3\xfa\x84\xfc\xbf\xc3\xd9\xc8l\xf8\r\x1f@\x19\xdc:\xee3K\r@'
p26
tp27
bsS'message'
p28
S'Converged (|x_n-x_(n-1)| ~= 0)'
p29
sS'jac'
p30
g19
(g20
(I0
tp31
g22
tp32
Rp33
(I1
(I3
tp34
g12
I00
S'\xe7\xebTy\xe2\x8b\xdd\xbf\xbd\xe6\xe6\xedu4\xa4?\xf0<BB\xcc5\xb4\xbf'
p35
tp36
bsS'nit'
p37
I7
stp38
Rp39
.