ccopy_reg
_reconstructor
p0
(cscipy.optimize.optimize
OptimizeResult
p1
c__builtin__
dict
p2
(dp3
S'status'
p4
I2
sS'success'
p5
I00
sS'nfev'
p6
I109
sS'fun'
p7
cnumpy.core.multiarray
scalar
p8
(cnumpy
dtype
p9
(S'f8'
p10
I0
I1
tp11
Rp12
(I3
S'<'
p13
NNNI-1
I-1
I0
tp14
bS'Ab\xaf\xac\x8bn\xdb?'
p15
tp16
Rp17
sS'x'
p18
cnumpy.core.multiarray
_reconstruct
p19
(cnumpy
ndarray
p20
(I0
tp21
S'b'
p22
tp23
Rp24
(I1
(I3
tp25
g12
I00
S'\xc7D\x19_*Q\xf5\xbf\x82\xeeP\x9c\x9bV\x1c@\x94\xa3\x8b\xdc\x95\xeb\x0e@'
p26
tp27
bsS'message'
p28
S'ABNORMAL_TERMINATION_IN_LNSRCH'
p29
sS'jac'
p30
g19
(g20
(I0
tp31
g22
tp32
Rp33
(I1
(I3
tp34
g12
I00
S'\xa2\xe1\xf4\xc8\xa3\x9e\x10?\xe4|]+]\xfa\xde>\x0b\xe7\xfd\x1aE\xec\x0c\xbf'
p35
tp36
bsS'nit'
p37
I13
stp38
Rp39
.