ccopy_reg
_reconstructor
p0
(cscipy.optimize.optimize
OptimizeResult
p1
c__builtin__
dict
p2
(dp3
S'status'
p4
I0
sS'nhev'
p5
I16
sS'success'
p6
I01
sS'jac'
p7
cnumpy.core.multiarray
_reconstruct
p8
(cnumpy
ndarray
p9
(I0
tp10
S'b'
p11
tp12
Rp13
(I1
(I3
tp14
cnumpy
dtype
p15
(S'f8'
p16
I0
I1
tp17
Rp18
(I3
S'<'
p19
NNNI-1
I-1
I0
tp20
bI00
S'\xa68HM\xad_\x03?\x0e\x1aU\x19-Q\x0f\xbf\x9b\xf5w\xdd\x12l\x01?'
p21
tp22
bsS'nfev'
p23
I25
sS'fun'
p24
cnumpy.core.multiarray
scalar
p25
(g18
S'\x07d]P\x98n\xdb?'
p26
tp27
Rp28
sS'x'
p29
g8
(g9
(I0
tp30
g11
tp31
Rp32
(I1
(I3
tp33
g18
I00
S'z\xd0\x12\x91NQ\xf5\xbf\xe0"\xf8a\xe1\xf5\x16@\x1d\xef\xfc\xb7\xce\x8a\t@'
p34
tp35
bsS'message'
p36
S'Optimization terminated successfully.'
p37
sS'hess'
p38
g8
(g9
(I0
tp39
g11
tp40
Rp41
(I1
(I3
I3
tp42
g18
I00
S"\xd6\\\xad\n\x80}T@\xa2fP\xc5\x12SB@kRy\xcewSR\xc0\xa2fP\xc5\x12SB@}V\x97+'x0@^\xb7.\x9e\x1fw@\xc0kRy\xcewSR\xc0^\xb7.\x9e\x1fw@\xc0\x0f\xf1h\xf4\xe0vP@"
p43
tp44
bsS'njev'
p45
I17
sS'nit'
p46
I24
stp47
Rp48
.