ccopy_reg
_reconstructor
p0
(cscipy.optimize.optimize
OptimizeResult
p1
c__builtin__
dict
p2
(dp3
S'status'
p4
I2
sS'success'
p5
I01
sS'nfev'
p6
I36
sS'fun'
p7
cnumpy.core.multiarray
scalar
p8
(cnumpy
dtype
p9
(S'f8'
p10
I0
I1
tp11
Rp12
(I3
S'<'
p13
NNNI-1
I-1
I0
tp14
bS'\x0f\xc7\x941\x10r\xf5?'
p15
tp16
Rp17
sS'x'
p18
cnumpy.core.multiarray
_reconstruct
p19
(cnumpy
ndarray
p20
(I0
tp21
S'b'
p22
tp23
Rp24
(I1
(I3
tp25
g12
I00
S'l\xa5\xc8\x97H\x02\x02\xc0\xd2\xb8M\xe0l\x89\x1c@\x06\x9aX\x92\r,\x04@'
p26
tp27
bsS'message'
p28
S'Converged (|x_n-x_(n-1)| ~= 0)'
p29
sS'jac'
p30
g19
(g20
(I0
tp31
g22
tp32
Rp33
(I1
(I3
tp34
g12
I00
S'z\x80\x99\x83\x17\xb8\x14\xc0\xf1\xce\xc0Z\xc9\xbb\xd0\xbf\\e\x8d\xa7\x06\xb7\xe0?'
p35
tp36
bsS'nit'
p37
I4
stp38
Rp39
.