ccopy_reg
_reconstructor
p0
(cscipy.optimize.optimize
OptimizeResult
p1
c__builtin__
dict
p2
(dp3
S'status'
p4
I2
sS'success'
p5
I01
sS'nfev'
p6
I83
sS'fun'
p7
cnumpy.core.multiarray
scalar
p8
(cnumpy
dtype
p9
(S'f8'
p10
I0
I1
tp11
Rp12
(I3
S'<'
p13
NNNI-1
I-1
I0
tp14
bS'\xea(G\x04U\xc4\xdd?'
p15
tp16
Rp17
sS'x'
p18
cnumpy.core.multiarray
_reconstruct
p19
(cnumpy
ndarray
p20
(I0
tp21
S'b'
p22
tp23
Rp24
(I1
(I3
tp25
g12
I00
S'#hLx\x17\x9c\xd3\xbf\xab\xd9$\x90\x1ez\x1a@@\xaa\x08\\\xc4\xd0\x12@'
p26
tp27
bsS'message'
p28
S'Converged (|x_n-x_(n-1)| ~= 0)'
p29
sS'jac'
p30
g19
(g20
(I0
tp31
g22
tp32
Rp33
(I1
(I3
tp34
g12
I00
S'=\xc6*\xdc\x90\xa2\x93?S\x80r\x9a1k8\xbf1\xe4\xcc\x16n@D?'
p35
tp36
bsS'nit'
p37
I9
stp38
Rp39
.