ccopy_reg
_reconstructor
p0
(cscipy.optimize.optimize
OptimizeResult
p1
c__builtin__
dict
p2
(dp3
S'status'
p4
I3
sS'nhev'
p5
I1
sS'success'
p6
I00
sS'jac'
p7
cnumpy.core.multiarray
_reconstruct
p8
(cnumpy
ndarray
p9
(I0
tp10
S'b'
p11
tp12
Rp13
(I1
(I3
tp14
cnumpy
dtype
p15
(S'f8'
p16
I0
I1
tp17
Rp18
(I3
S'<'
p19
NNNI-1
I-1
I0
tp20
bI00
S'\xc8\x13}I\xef\xcf?@\x9f\x87\xcb<\xf8\xab$@\xf4BCT\xd6\xab4\xc0'
p21
tp22
bsS'nfev'
p23
I1
sS'fun'
p24
cnumpy.core.multiarray
scalar
p25
(g18
S'\xcc\x19\xbd\x8eu\xf9Q@'
p26
tp27
Rp28
sS'x'
p29
g8
(g9
(I0
tp30
g11
tp31
Rp32
(I1
(I3
tp33
g18
I00
S'\xf8j\xc8*Nb\xe1\xbf\xa2W_G(U\x1e@Z\xcc"g@g\n@'
p34
tp35
bsS'message'
p36
S'A linalg error occurred, such as a non-psd Hessian.'
p37
sS'hess'
p38
g8
(g9
(I0
tp39
g11
tp40
Rp41
(I1
(I3
I3
tp42
g18
I00
S'y\xf4\xda1\x80:R\xc0&\xf4\x9c\xcb\xe9\x16:\xc0\xed?\xfe\xaa\x0c\x18J@&\xf4\x9c\xcb\xe9\x16:\xc0w\xf7p\x0b\x83p*\xc0\xf1g(d@n:@\xed?\xfe\xaa\x0c\x18J@\xf1g(d@n:@)]\xe8\xa3\x05nJ\xc0'
p43
tp44
bsS'njev'
p45
I1
sS'nit'
p46
I0
stp47
Rp48
.