ccopy_reg
_reconstructor
p0
(cscipy.optimize.optimize
OptimizeResult
p1
c__builtin__
dict
p2
(dp3
S'status'
p4
I2
sS'success'
p5
I00
sS'jac'
p6
cnumpy.core.multiarray
_reconstruct
p7
(cnumpy
ndarray
p8
(I0
tp9
S'b'
p10
tp11
Rp12
(I1
(I3
tp13
cnumpy
dtype
p14
(S'f8'
p15
I0
I1
tp16
Rp17
(I3
S'<'
p18
NNNI-1
I-1
I0
tp19
bI00
S'\xdf\xe9T\xa8p\xec6\xc0\xa4\xf59v{\xe8\x14\xc0\xbf\xeeFK\xf6\xe7$@'
p20
tp21
bsS'nfev'
p22
I15
sS'fun'
p23
F8.826829887929858
sS'x'
p24
g7
(g8
(I0
tp25
g10
tp26
Rp27
(I1
(I3
tp28
g17
I00
S'u\xb4\xbf\xcc\xf3\xe2\x03\xc0\x10\xa6\x88\xe4\x97^\x1f@\xc1\xa3\xc7\xe6\xd0B\x0b@'
p29
tp30
bsS'message'
p31
S'Desired error not necessarily achieved due to precision loss.'
p32
sS'njev'
p33
I3
stp34
Rp35
.