ccopy_reg
_reconstructor
p0
(cscipy.optimize.optimize
OptimizeResult
p1
c__builtin__
dict
p2
(dp3
S'nfev'
p4
I974
sS'success'
p5
I01
sS'fun'
p6
cnumpy.core.multiarray
scalar
p7
(cnumpy
dtype
p8
(S'f8'
p9
I0
I1
tp10
Rp11
(I3
S'<'
p12
NNNI-1
I-1
I0
tp13
bS'8\x18!\x12\xaeo\xdb?'
p14
tp15
Rp16
sS'x'
p17
cnumpy.core.multiarray
_reconstruct
p18
(cnumpy
ndarray
p19
(I0
tp20
S'b'
p21
tp22
Rp23
(I1
(I3
tp24
g11
I00
S'\\\x90\x9e\xc3\x0b\x92\xf5\xbf\xd0\x02\x9a\xbe\x89x\x1e@i|\xe3<zu\x10@'
p25
tp26
bsS'message'
p27
S'Optimization terminated successfully.'
p28
sS'jac'
p29
g18
(g19
(I0
tp30
g21
tp31
Rp32
(I1
(I3
tp33
g11
I00
S'x\x8c\x1c\t\xd7\xfdD@\xb8^\x95nYLB@\x04\x1fW\x89{*?@'
p34
tp35
bsS'nit'
p36
I17
stp37
Rp38
.