ccopy_reg
_reconstructor
p0
(cscipy.optimize.optimize
OptimizeResult
p1
c__builtin__
dict
p2
(dp3
S'status'
p4
I0
sS'success'
p5
I01
sS'jac'
p6
cnumpy.core.multiarray
_reconstruct
p7
(cnumpy
ndarray
p8
(I0
tp9
S'b'
p10
tp11
Rp12
(I1
(I3
tp13
cnumpy
dtype
p14
(S'f8'
p15
I0
I1
tp16
Rp17
(I3
S'<'
p18
NNNI-1
I-1
I0
tp19
bI00
S'\x00\x85\x82\xdd\xbcl+\xbf\xaaD%!y\xfb\xdf>\\/\xceig\xdb\x02\xbf'
p20
tp21
bsS'nfev'
p22
I48
sS'fun'
p23
cnumpy.core.multiarray
scalar
p24
(g17
S'\xb4\xcd\xa4\xf2\x8en\xdb?'
p25
tp26
Rp27
sS'x'
p28
g7
(g8
(I0
tp29
g10
tp30
Rp31
(I1
(I3
tp32
g17
I00
S'1\x0e\x9co\xc4R\xf5\xbf\xac(\x9b\x97\xb0\xe7\x1a@\x89\xcc6\xb1\xc7{\r@'
p33
tp34
bsS'message'
p35
S'Optimization terminated successfully.'
p36
sS'nhev'
p37
I32
sS'njev'
p38
I77
stp39
Rp40
.