ccopy_reg
_reconstructor
p0
(cscipy.optimize.optimize
OptimizeResult
p1
c__builtin__
dict
p2
(dp3
S'status'
p4
I2
sS'success'
p5
I01
sS'nfev'
p6
I66
sS'fun'
p7
cnumpy.core.multiarray
scalar
p8
(cnumpy
dtype
p9
(S'f8'
p10
I0
I1
tp11
Rp12
(I3
S'<'
p13
NNNI-1
I-1
I0
tp14
bS'\xd9zu\xaa\xfco\xdb?'
p15
tp16
Rp17
sS'x'
p18
cnumpy.core.multiarray
_reconstruct
p19
(cnumpy
ndarray
p20
(I0
tp21
S'b'
p22
tp23
Rp24
(I1
(I3
tp25
g12
I00
S'\x82\xd0\xbc\xd9\x00\x0c\xf5\xbf\xd9s\xdatD"\x1d@\xf5\xe3E6\x84\xdb\x0f@'
p26
tp27
bsS'message'
p28
S'Converged (|x_n-x_(n-1)| ~= 0)'
p29
sS'jac'
p30
g19
(g20
(I0
tp31
g22
tp32
Rp33
(I1
(I3
tp34
g12
I00
S'\x1b\xa1S\x81\x9f;\xb5?\xd3\x19\xe2\xaaQ\xc1\xa1?\x85\xb6\xe1\xc8b\xc1\xb1\xbf'
p35
tp36
bsS'nit'
p37
I10
stp38
Rp39
.