ccopy_reg
_reconstructor
p0
(cscipy.optimize.optimize
OptimizeResult
p1
c__builtin__
dict
p2
(dp3
S'status'
p4
I2
sS'nhev'
p5
I16
sS'success'
p6
I00
sS'jac'
p7
cnumpy.core.multiarray
_reconstruct
p8
(cnumpy
ndarray
p9
(I0
tp10
S'b'
p11
tp12
Rp13
(I1
(I3
tp14
cnumpy
dtype
p15
(S'f8'
p16
I0
I1
tp17
Rp18
(I3
S'<'
p19
NNNI-1
I-1
I0
tp20
bI00
S'\xa77\xf6\x07\xe8\xa9\x19\xbf#2\x87\xcd:\x18 ?3\x90\xc7\x8b\xc7\x80:\xbf'
p21
tp22
bsS'nfev'
p23
I42
sS'fun'
p24
cnumpy.core.multiarray
scalar
p25
(g18
S'\x15R\xa4\xde\x87n\xdb?'
p26
tp27
Rp28
sS'x'
p29
g8
(g9
(I0
tp30
g11
tp31
Rp32
(I1
(I3
tp33
g18
I00
S'\x8bK\xc96\xc9T\xf5\xbf;\xfePD\x9d\xd6 @\xc6\xea;b\x16 \x12@'
p34
tp35
bsS'message'
p36
S'A bad approximation caused failure to predict improvement.'
p37
sS'hess'
p38
g8
(g9
(I0
tp39
g11
tp40
Rp41
(I1
(I3
I3
tp42
g18
I00
S'y.o=\xe1~T@JLZ\x18\xdbSB@(s\xc0\xaa\x91SR\xc0JLZ\x18\xdbSB@\xa5\x88Yw\x8dv0@\x80\xcf\xa4\x80\xb2v@\xc0(s\xc0\xaa\x91SR\xc0\x80\xcf\xa4\x80\xb2v@\xc0d\x12|\xae\x89vP@'
p43
tp44
bsS'njev'
p45
I16
sS'nit'
p46
I40
stp47
Rp48
.