ccopy_reg
_reconstructor
p0
(cscipy.optimize.optimize
OptimizeResult
p1
c__builtin__
dict
p2
(dp3
S'status'
p4
I2
sS'success'
p5
I00
sS'jac'
p6
cnumpy.core.multiarray
_reconstruct
p7
(cnumpy
ndarray
p8
(I0
tp9
S'b'
p10
tp11
Rp12
(I1
(I3
tp13
cnumpy
dtype
p14
(S'f8'
p15
I0
I1
tp16
Rp17
(I3
S'<'
p18
NNNI-1
I-1
I0
tp19
bI00
S'\x0f\xff\xe6\xd5\x1b#K?\x03\x9a\xdb\xdap\xd49?RF\xcc\xb5\xce\x90L\xbf'
p20
tp21
bsS'nfev'
p22
I39
sS'hess_inv'
p23
g7
(g8
(I0
tp24
g10
tp25
Rp26
(I1
(I3
I3
tp27
g17
I00
S"\xd0\xb9\x86I\xe2\x88#@\x0fAqk,V\x03@'\x94{\xeb \xff%@oAqk,V\x03@d\xf0\xb9\x03\x95R\xf0?Sz\xdd=\xceX\x07@7\x94{\xeb \xff%@\x03z\xdd=\xceX\x07@${E2\xba\xf6(@"
p28
tp29
bsS'fun'
p30
F0.42862338010280987
sS'x'
p31
g7
(g8
(I0
tp32
g10
tp33
Rp34
(I1
(I3
tp35
g17
I00
S'C\xaa\xe4\xd6\xa7Q\xf5\xbf\xc8z"\xc6\x8b:\x19@\x8d\xe0\x14\xea<\xcf\x0b@'
p36
tp37
bsS'message'
p38
S'Desired error not necessarily achieved due to precision loss.'
p39
sS'njev'
p40
I29
stp41
Rp42
.