ccopy_reg
_reconstructor
p0
(cscipy.optimize.optimize
OptimizeResult
p1
c__builtin__
dict
p2
(dp3
S'status'
p4
I4
sS'success'
p5
I00
sS'nfev'
p6
I66
sS'fun'
p7
cnumpy.core.multiarray
scalar
p8
(cnumpy
dtype
p9
(S'f8'
p10
I0
I1
tp11
Rp12
(I3
S'<'
p13
NNNI-1
I-1
I0
tp14
bS'*\xe8t\x1a;\xf44@'
p15
tp16
Rp17
sS'x'
p18
cnumpy.core.multiarray
_reconstruct
p19
(cnumpy
ndarray
p20
(I0
tp21
S'b'
p22
tp23
Rp24
(I1
(I3
tp25
g12
I00
S'J_\x13,S\xaf\x06\xc0\xeaD\t\xe2\xd3\xf9\x1e@\xfa\xdf\x8c\x98\xe3\x96\x0f@'
p26
tp27
bsS'message'
p28
S'Linear search failed'
p29
sS'jac'
p30
g19
(g20
(I0
tp31
g22
tp32
Rp33
(I1
(I3
tp34
g12
I00
S"\x8e\xfd\x1b\xa1\xfa`'\xc0\x14\xbb\xc1G\xb2a\x0e\xc0'\x99fA\x07b\x1e@"
p35
tp36
bsS'nit'
p37
I0
stp38
Rp39
.