ccopy_reg
_reconstructor
p0
(cscipy.optimize.optimize
OptimizeResult
p1
c__builtin__
dict
p2
(dp3
S'status'
p4
I1
sS'success'
p5
I01
sS'nfev'
p6
I90
sS'fun'
p7
cnumpy.core.multiarray
scalar
p8
(cnumpy
dtype
p9
(S'f8'
p10
I0
I1
tp11
Rp12
(I3
S'<'
p13
NNNI-1
I-1
I0
tp14
bS'\xa6A\x04\xc1\x9cg\xf8?'
p15
tp16
Rp17
sS'x'
p18
cnumpy.core.multiarray
_reconstruct
p19
(cnumpy
ndarray
p20
(I0
tp21
S'b'
p22
tp23
Rp24
(I1
(I3
tp25
g12
I00
S'\xa8R\xef\x12\xbc2\x02\xc0\xb0l\x89\x97\xc6\x19\x1b@\xfb\x9b=\xa6\x8f\xef\x02@'
p26
tp27
bsS'message'
p28
S'Converged (|f_n-f_(n-1)| ~= 0)'
p29
sS'jac'
p30
g19
(g20
(I0
tp31
g22
tp32
Rp33
(I1
(I3
tp34
g12
I00
S'@\xcd\xdb%\xed\x8b \xc0\xf0\xa0\x94\xfa\xd8\xbd\xe7\xbf\xee+\x07U\xc1\xbc\xf7?'
p35
tp36
bsS'nit'
p37
I8
stp38
Rp39
.