ccopy_reg
_reconstructor
p0
(cscipy.optimize.optimize
OptimizeResult
p1
c__builtin__
dict
p2
(dp3
S'status'
p4
I2
sS'success'
p5
I00
sS'nfev'
p6
I111
sS'fun'
p7
cnumpy.core.multiarray
scalar
p8
(cnumpy
dtype
p9
(S'f8'
p10
I0
I1
tp11
Rp12
(I3
S'<'
p13
NNNI-1
I-1
I0
tp14
bS"'s\x9cp\x96n\xdb?"
p15
tp16
Rp17
sS'x'
p18
cnumpy.core.multiarray
_reconstruct
p19
(cnumpy
ndarray
p20
(I0
tp21
S'b'
p22
tp23
Rp24
(I1
(I3
tp25
g12
I00
S'\xc3\xe5\x1f\xb98Q\xf5\xbf!\x95\x81\xa6\xe9\xf6\x16@\x8f\xfb\x99\x82\xe3\x8b\t@'
p26
tp27
bsS'message'
p28
S'ABNORMAL_TERMINATION_IN_LNSRCH'
p29
sS'jac'
p30
g19
(g20
(I0
tp31
g22
tp32
Rp33
(I1
(I3
tp34
g12
I00
S'\xba\xd3\xe2\\Fg\xe5\xbe\x06D\xa5%\xb7w\x16\xbfA\xb7\xa2*\x0b,$?'
p35
tp36
bsS'nit'
p37
I18
stp38
Rp39
.