ccopy_reg
_reconstructor
p0
(cscipy.optimize.optimize
OptimizeResult
p1
c__builtin__
dict
p2
(dp3
S'status'
p4
I2
sS'success'
p5
I00
sS'jac'
p6
cnumpy.core.multiarray
_reconstruct
p7
(cnumpy
ndarray
p8
(I0
tp9
S'b'
p10
tp11
Rp12
(I1
(I3
tp13
cnumpy
dtype
p14
(S'f8'
p15
I0
I1
tp16
Rp17
(I3
S'<'
p18
NNNI-1
I-1
I0
tp19
bI00
S"IX2\xb7\\gB\xbf\x07\x12\x1a\xa7N\xb3.\xbf@*\xbe\x7f'\xec=?"
p20
tp21
bsS'nfev'
p22
I36
sS'fun'
p23
cnumpy.core.multiarray
scalar
p24
(g17
S'/\xa3Y\xa7\x8en\xdb?'
p25
tp26
Rp27
sS'x'
p28
g7
(g8
(I0
tp29
g10
tp30
Rp31
(I1
(I3
tp32
g17
I00
S'BR\xb2\xf6\xceR\xf5\xbf\x1d\xe1\xe7u\xfd\xe3\x19@\xfd\xab\x12\x9d\x13x\x0c@'
p33
tp34
bsS'message'
p35
S'Desired error not necessarily achieved due to precision loss.'
p36
sS'nhev'
p37
I8
sS'njev'
p38
I30
stp39
Rp40
.