ccopy_reg
_reconstructor
p0
(cscipy.optimize.optimize
OptimizeResult
p1
c__builtin__
dict
p2
(dp3
S'status'
p4
I0
sS'success'
p5
I01
sS'jac'
p6
cnumpy.core.multiarray
_reconstruct
p7
(cnumpy
ndarray
p8
(I0
tp9
S'b'
p10
tp11
Rp12
(I1
(I3
tp13
cnumpy
dtype
p14
(S'f8'
p15
I0
I1
tp16
Rp17
(I3
S'<'
p18
NNNI-1
I-1
I0
tp19
bI00
S'\xf7\xa8PV\x1eDQ\xbf\xd5\xe9\xdc4\x01\xc42\xbfp\x9f\xb1\xad\xdcbL?'
p20
tp21
bsS'nfev'
p22
I38
sS'fun'
p23
F0.4286221417862918
sS'x'
p24
g7
(g8
(I0
tp25
g10
tp26
Rp27
(I1
(I3
tp28
g17
I00
S'y>\xea\x94\xcfT\xf5\xbf\xf7]\xf0\xc5\x1bn\x1b@;\xe9D0\x15\x01\x0e@'
p29
tp30
bsS'message'
p31
S'Optimization terminated successfully.'
p32
sS'nhev'
p33
I14
sS'njev'
p34
I47
stp35
Rp36
.