ccopy_reg
_reconstructor
p0
(cscipy.optimize.optimize
OptimizeResult
p1
c__builtin__
dict
p2
(dp3
S'status'
p4
I3
sS'nhev'
p5
I1
sS'success'
p6
I00
sS'jac'
p7
cnumpy.core.multiarray
_reconstruct
p8
(cnumpy
ndarray
p9
(I0
tp10
S'b'
p11
tp12
Rp13
(I1
(I3
tp14
cnumpy
dtype
p15
(S'f8'
p16
I0
I1
tp17
Rp18
(I3
S'<'
p19
NNNI-1
I-1
I0
tp20
bI00
S'SibC\x98\xd4Q@\x96Q|\xc8CR$@\xbf\xae\xd0\x1c\x8dR4\xc0'
p21
tp22
bsS'nfev'
p23
I1
sS'fun'
p24
cnumpy.core.multiarray
scalar
p25
(g18
S'&]\xce8\x81\xc0F@'
p26
tp27
Rp28
sS'x'
p29
g8
(g9
(I0
tp30
g11
tp31
Rp32
(I1
(I3
tp33
g18
I00
S'\xb7\xb8Ib\x00\xfd\xf6\xbf9c>\x8b%-\x1c@W\x99k\xff\x92\xd5\x01@'
p34
tp35
bsS'message'
p36
S'A linalg error occurred, such as a non-psd Hessian.'
p37
sS'hess'
p38
g8
(g9
(I0
tp39
g11
tp40
Rp41
(I1
(I3
I3
tp42
g18
I00
S'\xc2\xd3\xb0\xbe\xb5\xd2Q\xc0?&R)=\x15%\xc0v\xce\xec\x80\xd3\x155@?&R)=\x15%\xc0\x10H\xa9\xae\x99+#\xc0*\xd9\xfd*#,3@v\xce\xec\x80\xd3\x155@*\xd9\xfd*#,3@\x1c\xb9\xd0\xd8\xa76C\xc0'
p43
tp44
bsS'njev'
p45
I1
sS'nit'
p46
I0
stp47
Rp48
.