ccopy_reg
_reconstructor
p0
(cscipy.optimize.optimize
OptimizeResult
p1
c__builtin__
dict
p2
(dp3
S'status'
p4
I0
sS'success'
p5
I01
sS'jac'
p6
cnumpy.core.multiarray
_reconstruct
p7
(cnumpy
ndarray
p8
(I0
tp9
S'b'
p10
tp11
Rp12
(I1
(I3
tp13
cnumpy
dtype
p14
(S'f8'
p15
I0
I1
tp16
Rp17
(I3
S'<'
p18
NNNI-1
I-1
I0
tp19
bI00
S'\xaf\x04\xbf^1\xfe%\xbf\x04\xec\x00\x8b\xa8\xb9\x00\xbf\xb6\xb3\xbe#\xa6\x8d\x04?'
p20
tp21
bsS'nfev'
p22
I27
sS'fun'
p23
F0.4286215480179183
sS'x'
p24
g7
(g8
(I0
tp25
g10
tp26
Rp27
(I1
(I3
tp28
g17
I00
S'\xf5\x92\xfb\x18gQ\xf5\xbf1\t\xfe\xe1i\n\x1f@@\xea\x1a\xeb\xa0\xcf\x10@'
p29
tp30
bsS'message'
p31
S'Optimization terminated successfully.'
p32
sS'nhev'
p33
I20
sS'njev'
p34
I46
stp35
Rp36
.