ccopy_reg
_reconstructor
p0
(cscipy.optimize.optimize
OptimizeResult
p1
c__builtin__
dict
p2
(dp3
S'status'
p4
I0
sS'success'
p5
I01
sS'nfev'
p6
I46
sS'fun'
p7
cnumpy.core.multiarray
scalar
p8
(cnumpy
dtype
p9
(S'f8'
p10
I0
I1
tp11
Rp12
(I3
S'<'
p13
NNNI-1
I-1
I0
tp14
bS"'D\xd9\xc7\x8bn\xdb?"
p15
tp16
Rp17
sS'x'
p18
cnumpy.core.multiarray
_reconstruct
p19
(cnumpy
ndarray
p20
(I0
tp21
S'b'
p22
tp23
Rp24
(I1
(I3
tp25
g12
I00
S"\xa2Q\x1cyLP\xf5\xbf'\xf7\x07>\x85\x87\x1d@g\xdeJ\xb0{\x0e\x10@"
p26
tp27
bsS'message'
p28
S'CONVERGENCE: REL_REDUCTION_OF_F_<=_FACTR*EPSMCH'
p29
sS'jac'
p30
g19
(g20
(I0
tp31
g22
tp32
Rp33
(I1
(I3
tp34
g12
I00
S'\xe9\xe2E\xeb#\xd3@?\r\xf9}4\x9751?\xae\xbe@\xd5W\x078\xbf'
p35
tp36
bsS'nit'
p37
I21
stp38
Rp39
.