ccopy_reg
_reconstructor
p0
(cscipy.optimize.optimize
OptimizeResult
p1
c__builtin__
dict
p2
(dp3
S'status'
p4
I4
sS'success'
p5
I00
sS'nfev'
p6
I78
sS'fun'
p7
cnumpy.core.multiarray
scalar
p8
(cnumpy
dtype
p9
(S'f8'
p10
I0
I1
tp11
Rp12
(I3
S'<'
p13
NNNI-1
I-1
I0
tp14
bS'\xb3\xd6\x86\xdd\x96&\xdc?'
p15
tp16
Rp17
sS'x'
p18
cnumpy.core.multiarray
_reconstruct
p19
(cnumpy
ndarray
p20
(I0
tp21
S'b'
p22
tp23
Rp24
(I1
(I3
tp25
g12
I00
S"v\xe7s\x83'!\xf0\xbf\x83\xe7P>\x94\xe8 @T#\xb7x\xc6\x9b\x13@"
p26
tp27
bsS'message'
p28
S'Linear search failed'
p29
sS'jac'
p30
g19
(g20
(I0
tp31
g22
tp32
Rp33
(I1
(I3
tp34
g12
I00
S'\x1f\xff\x8f\xc3\x0c\x0f\xba\xbfSi\xe8\xe0\xbfR\xb2\xbf\xc5\xc3\xaa\x8e\x88M\xc2?'
p35
tp36
bsS'nit'
p37
I2
stp38
Rp39
.