ccopy_reg
_reconstructor
p0
(cscipy.optimize.optimize
OptimizeResult
p1
c__builtin__
dict
p2
(dp3
S'status'
p4
I2
sS'success'
p5
I00
sS'jac'
p6
cnumpy.core.multiarray
_reconstruct
p7
(cnumpy
ndarray
p8
(I0
tp9
S'b'
p10
tp11
Rp12
(I1
(I3
tp13
cnumpy
dtype
p14
(S'f8'
p15
I0
I1
tp16
Rp17
(I3
S'<'
p18
NNNI-1
I-1
I0
tp19
bI00
S'\x89\xb7pBs\xda\xee\xbf\x1c\xe5\xddf\xc8\xe7\xd7\xbf>\xe1\xea\\{\xe7\xe7?'
p20
tp21
bsS'nfev'
p22
I16
sS'fun'
p23
F0.4400867434507891
sS'x'
p24
g7
(g8
(I0
tp25
g10
tp26
Rp27
(I1
(I3
tp28
g17
I00
S'J\xa1\xf8\xe1\xe0\xee\xf7\xbf_\x12\x02z\x98\xf8\x19@^\x8a\\\xdc\x0c*\x0b@'
p29
tp30
bsS'message'
p31
S'Desired error not necessarily achieved due to precision loss.'
p32
sS'njev'
p33
I4
stp34
Rp35
.