ccopy_reg
_reconstructor
p0
(cscipy.optimize.optimize
OptimizeResult
p1
c__builtin__
dict
p2
(dp3
S'status'
p4
I2
sS'success'
p5
I00
sS'jac'
p6
cnumpy.core.multiarray
_reconstruct
p7
(cnumpy
ndarray
p8
(I0
tp9
S'b'
p10
tp11
Rp12
(I1
(I3
tp13
cnumpy
dtype
p14
(S'f8'
p15
I0
I1
tp16
Rp17
(I3
S'<'
p18
NNNI-1
I-1
I0
tp19
bI00
S'\xe2\xc7\x7f/\xb5\x14\x13?y\x07\x0f\xb9\x87x\x0b\xbf0\xc4C\x99u\x07\x06?'
p20
tp21
bsS'nfev'
p22
I164
sS'fun'
p23
F0.4286222027920284
sS'x'
p24
g7
(g8
(I0
tp25
g10
tp26
Rp27
(I1
(I3
tp28
g17
I00
S'\xd2\xd3\xac`\xd2O\xf5\xbf\x82/\xb0\x92\xd6\x04\x1e@"\xe6;\xfaGM\x10@'
p29
tp30
bsS'message'
p31
S'Desired error not necessarily achieved due to precision loss.'
p32
sS'nhev'
p33
I111
sS'njev'
p34
I263
stp35
Rp36
.