ccopy_reg
_reconstructor
p0
(cscipy.optimize.optimize
OptimizeResult
p1
c__builtin__
dict
p2
(dp3
S'status'
p4
I2
sS'nhev'
p5
I14
sS'success'
p6
I00
sS'jac'
p7
cnumpy.core.multiarray
_reconstruct
p8
(cnumpy
ndarray
p9
(I0
tp10
S'b'
p11
tp12
Rp13
(I1
(I3
tp14
cnumpy
dtype
p15
(S'f8'
p16
I0
I1
tp17
Rp18
(I3
S'<'
p19
NNNI-1
I-1
I0
tp20
bI00
S'\xe0\xbd\x02@8\xea\\\xbf\xd1D\xf6\xe2*m;\xbfiNf\xd5\xbe0K?'
p21
tp22
bsS'nfev'
p23
I41
sS'fun'
p24
cnumpy.core.multiarray
scalar
p25
(g18
S'\xfc\x92\x96\x05\x8dn\xdb?'
p26
tp27
Rp28
sS'x'
p29
g8
(g9
(I0
tp30
g11
tp31
Rp32
(I1
(I3
tp33
g18
I00
S'MH\x04w\xb4X\xf5\xbf$\x07\x1fyj\xd0 @ qN-\xd1\x18\x12@'
p34
tp35
bsS'message'
p36
S'A bad approximation caused failure to predict improvement.'
p37
sS'hess'
p38
g8
(g9
(I0
tp39
g11
tp40
Rp41
(I1
(I3
I3
tp42
g18
I00
S'Y\x99@l\x17\x7fT@ \xe1\xca\xd9\xadRB@~\xf6\xc4\x0e\xa7RR\xc0 \xe1\xca\xd9\xadRB@\xcct\xc2\x94\xcet0@\xcf=\xcc\x83\xd8t@\xc0~\xf6\xc4\x0e\xa7RR\xc0\xcf=\xcc\x83\xd8t@\xc0\x98\xb2$$\xdftP@'
p43
tp44
bsS'njev'
p45
I14
sS'nit'
p46
I39
stp47
Rp48
.