ccopy_reg
_reconstructor
p0
(cscipy.optimize.optimize
OptimizeResult
p1
c__builtin__
dict
p2
(dp3
S'status'
p4
I2
sS'success'
p5
I01
sS'nfev'
p6
I82
sS'fun'
p7
cnumpy.core.multiarray
scalar
p8
(cnumpy
dtype
p9
(S'f8'
p10
I0
I1
tp11
Rp12
(I3
S'<'
p13
NNNI-1
I-1
I0
tp14
bS'Aw\xa7\xe4\xa7>\xdc?'
p15
tp16
Rp17
sS'x'
p18
cnumpy.core.multiarray
_reconstruct
p19
(cnumpy
ndarray
p20
(I0
tp21
S'b'
p22
tp23
Rp24
(I1
(I3
tp25
g12
I00
S'2;\x1cN|\xc0\xf6\xbf(\xe7\xb9\xf1\xa3\xb4\x18@\x95\x85\xfa\xca\x19\xa1\n@'
p26
tp27
bsS'message'
p28
S'Converged (|x_n-x_(n-1)| ~= 0)'
p29
sS'jac'
p30
g19
(g20
(I0
tp31
g22
tp32
Rp33
(I1
(I3
tp34
g12
I00
S'\x10\xc4\xcb>z\xd9\xf5\xbf\xb2\xa0B\xbd\xc5\xa5\xe2\xbf\xd6L\xb6uL\xa6\xf2?'
p35
tp36
bsS'nit'
p37
I11
stp38
Rp39
.