ccopy_reg
_reconstructor
p0
(cscipy.optimize.optimize
OptimizeResult
p1
c__builtin__
dict
p2
(dp3
S'status'
p4
I2
sS'success'
p5
I00
sS'jac'
p6
cnumpy.core.multiarray
_reconstruct
p7
(cnumpy
ndarray
p8
(I0
tp9
S'b'
p10
tp11
Rp12
(I1
(I3
tp13
cnumpy
dtype
p14
(S'f8'
p15
I0
I1
tp16
Rp17
(I3
S'<'
p18
NNNI-1
I-1
I0
tp19
bI00
S'\xc8G\xe7\xf0\x03\xc21\xbf\xf0\xa9\x87\xd0\x12T\x14\xbf\x065\x9a\xb5\xe3\xa7\x10?'
p20
tp21
bsS'nfev'
p22
I40
sS'fun'
p23
F0.42862331677140814
sS'x'
p24
g7
(g8
(I0
tp25
g10
tp26
Rp27
(I1
(I3
tp28
g17
I00
S'\xc1j&\xa9\xb4Q\xf5\xbf\x0b\xe7\xaa|&\xdc\x18@\\\x8b\x19\xb7\xd7p\x0b@'
p29
tp30
bsS'message'
p31
S'Desired error not necessarily achieved due to precision loss.'
p32
sS'nhev'
p33
I14
sS'njev'
p34
I41
stp35
Rp36
.