ccopy_reg
_reconstructor
p0
(cscipy.optimize.optimize
OptimizeResult
p1
c__builtin__
dict
p2
(dp3
S'status'
p4
I0
sS'nhev'
p5
I11
sS'success'
p6
I01
sS'jac'
p7
cnumpy.core.multiarray
_reconstruct
p8
(cnumpy
ndarray
p9
(I0
tp10
S'b'
p11
tp12
Rp13
(I1
(I3
tp14
cnumpy
dtype
p15
(S'f8'
p16
I0
I1
tp17
Rp18
(I3
S'<'
p19
NNNI-1
I-1
I0
tp20
bI00
S'\x8c\x06\x85-\xc6\x04\x16?3\n\xa1\x96\xacg\x02?\x8e\x99\xa6Y$\xb4\xef>'
p21
tp22
bsS'nfev'
p23
I15
sS'fun'
p24
cnumpy.core.multiarray
scalar
p25
(g18
S'2\xa1\x13\xa0\x8bn\xdb?'
p26
tp27
Rp28
sS'x'
p29
g8
(g9
(I0
tp30
g11
tp31
Rp32
(I1
(I3
tp33
g18
I00
S'\xf6N\x8awOQ\xf5\xbf\xef1\xa4\x1b\x03\x8f\x1c@|S`f\xe8#\x0f@'
p34
tp35
bsS'message'
p36
S'Optimization terminated successfully.'
p37
sS'hess'
p38
g8
(g9
(I0
tp39
g11
tp40
Rp41
(I1
(I3
I3
tp42
g18
I00
S'I\xa3\x1ci)~T@_$\xd1v\xeeSB@c(e+GTR\xc0_$\xd1v\xeeSB@\x89\xd8w\xe0\xaaw0@\xf5^\xaa\x90\x05x@\xc0c(e+GTR\xc0\xf5^\xaa\x90\x05x@\xc0\xc2\xe1x\x9d\x82wP@'
p43
tp44
bsS'njev'
p45
I12
sS'nit'
p46
I14
stp47
Rp48
.