ccopy_reg
_reconstructor
p0
(cscipy.optimize.optimize
OptimizeResult
p1
c__builtin__
dict
p2
(dp3
S'status'
p4
I0
sS'success'
p5
I01
sS'jac'
p6
cnumpy.core.multiarray
_reconstruct
p7
(cnumpy
ndarray
p8
(I0
tp9
S'b'
p10
tp11
Rp12
(I1
(I3
tp13
cnumpy
dtype
p14
(S'f8'
p15
I0
I1
tp16
Rp17
(I3
S'<'
p18
NNNI-1
I-1
I0
tp19
bI00
S'B\xbb!g\xca\xf2\x13\xbf\x9c\x8b5\x0c\x973\x00?d\x1c\x933 8\x12\xbf'
p20
tp21
bsS'nfev'
p22
I36
sS'fun'
p23
cnumpy.core.multiarray
scalar
p24
(g17
S'\x18A\xdb\xda\x89n\xdb?'
p25
tp26
Rp27
sS'x'
p28
g7
(g8
(I0
tp29
g10
tp30
Rp31
(I1
(I3
tp32
g17
I00
S'\xa4\xe1\xb4\x0e\xfbN\xf5\xbf\xac\x1aR\xbd\xbeq @\xb5!z\x9e\xd6\xbc\x11@'
p33
tp34
bsS'message'
p35
S'Optimization terminated successfully.'
p36
sS'nhev'
p37
I11
sS'njev'
p38
I36
stp39
Rp40
.