ccopy_reg
_reconstructor
p0
(cscipy.optimize.optimize
OptimizeResult
p1
c__builtin__
dict
p2
(dp3
S'status'
p4
I0
sS'success'
p5
I01
sS'nfev'
p6
I60
sS'fun'
p7
cnumpy.core.multiarray
scalar
p8
(cnumpy
dtype
p9
(S'f8'
p10
I0
I1
tp11
Rp12
(I3
S'<'
p13
NNNI-1
I-1
I0
tp14
bS'\xe1v\x8c\xe3\x89n\xdb?'
p15
tp16
Rp17
sS'x'
p18
cnumpy.core.multiarray
_reconstruct
p19
(cnumpy
ndarray
p20
(I0
tp21
S'b'
p22
tp23
Rp24
(I1
(I3
tp25
g12
I00
S'\x86\x82*\xbfLR\xf5\xbf\xda\x1ar\x08[\x16!@3\xffs\xb3\x86`\x12@'
p26
tp27
bsS'message'
p28
S'CONVERGENCE: REL_REDUCTION_OF_F_<=_FACTR*EPSMCH'
p29
sS'jac'
p30
g19
(g20
(I0
tp31
g22
tp32
Rp33
(I1
(I3
tp34
g12
I00
S'gO\xf0\xee\x0e.%\xbf\x00\x14\xde\xcc\x80\xf2\xc3>\x98\x94\xaef\x1b\x11\x01\xbf'
p35
tp36
bsS'nit'
p37
I18
stp38
Rp39
.