ccopy_reg
_reconstructor
p0
(cscipy.optimize.optimize
OptimizeResult
p1
c__builtin__
dict
p2
(dp3
S'status'
p4
I2
sS'success'
p5
I01
sS'nfev'
p6
I87
sS'fun'
p7
cnumpy.core.multiarray
scalar
p8
(cnumpy
dtype
p9
(S'f8'
p10
I0
I1
tp11
Rp12
(I3
S'<'
p13
NNNI-1
I-1
I0
tp14
bS'\xbc\x9d\xe0\x8ek\xae\xdb?'
p15
tp16
Rp17
sS'x'
p18
cnumpy.core.multiarray
_reconstruct
p19
(cnumpy
ndarray
p20
(I0
tp21
S'b'
p22
tp23
Rp24
(I1
(I3
tp25
g12
I00
S'\x08\x16\x19Wl\xa8\xf2\xbf\x08\x92\x80\x84\x970\x18@B\xe8\x911\xcd;\x0c@'
p26
tp27
bsS'message'
p28
S'Converged (|x_n-x_(n-1)| ~= 0)'
p29
sS'jac'
p30
g19
(g20
(I0
tp31
g22
tp32
Rp33
(I1
(I3
tp34
g12
I00
S'\xe3\xec\xb3\x87H\xb7\x99\xbf\x1b\xb1\xf9\x19z\xbd\x9e\xbf\xe0\x0e\t\x83V\xa7\xae?'
p35
tp36
bsS'nit'
p37
I8
stp38
Rp39
.