ccopy_reg
_reconstructor
p0
(cscipy.optimize.optimize
OptimizeResult
p1
c__builtin__
dict
p2
(dp3
S'status'
p4
I2
sS'success'
p5
I00
sS'jac'
p6
cnumpy.core.multiarray
_reconstruct
p7
(cnumpy
ndarray
p8
(I0
tp9
S'b'
p10
tp11
Rp12
(I1
(I3
tp13
cnumpy
dtype
p14
(S'f8'
p15
I0
I1
tp16
Rp17
(I3
S'<'
p18
NNNI-1
I-1
I0
tp19
bI00
S'\xb0\x8c\xd5\xaa\x05\x08\x83?\\\xa8G\xfb(\x0fW\xbf0\xc12Q\xab/e?'
p20
tp21
bsS'nfev'
p22
I46
sS'fun'
p23
F0.46912310091218823
sS'x'
p24
g7
(g8
(I0
tp25
g10
tp26
Rp27
(I1
(I3
tp28
g17
I00
S'\xda\x045\x17\xc0\xfb\xa9\xbf\x8bA)xP\x0c\x1a@\x8c\xfb\xd62\xfc\xa1\x13@'
p29
tp30
bsS'message'
p31
S'Desired error not necessarily achieved due to precision loss.'
p32
sS'nhev'
p33
I25
sS'njev'
p34
I59
stp35
Rp36
.