ccopy_reg
_reconstructor
p0
(cscipy.optimize.optimize
OptimizeResult
p1
c__builtin__
dict
p2
(dp3
S'status'
p4
I4
sS'success'
p5
I00
sS'nfev'
p6
I70
sS'fun'
p7
cnumpy.core.multiarray
scalar
p8
(cnumpy
dtype
p9
(S'f8'
p10
I0
I1
tp11
Rp12
(I3
S'<'
p13
NNNI-1
I-1
I0
tp14
bS'\x19\xb0\xd3\xb5\x84\xc1\xdb?'
p15
tp16
Rp17
sS'x'
p18
cnumpy.core.multiarray
_reconstruct
p19
(cnumpy
ndarray
p20
(I0
tp21
S'b'
p22
tp23
Rp24
(I1
(I3
tp25
g12
I00
S'\xba\xdf|\x83\xde6\xf2\xbf4\xc0\xb9j\xdcZ\x1f@\xbc`\x11\xfe\x15\xd2\x11@'
p26
tp27
bsS'message'
p28
S'Linear search failed'
p29
sS'jac'
p30
g19
(g20
(I0
tp31
g22
tp32
Rp33
(I1
(I3
tp34
g12
I00
S'\xb4\xdfV\x01]$\xaf\xbf\xd1\x02\x82H\x99\xa1\xa8\xbf\xed?\xb8\xf4\xff\xa6\xb8?'
p35
tp36
bsS'nit'
p37
I1
stp38
Rp39
.