ccopy_reg
_reconstructor
p0
(cscipy.optimize.optimize
OptimizeResult
p1
c__builtin__
dict
p2
(dp3
S'status'
p4
I1
sS'success'
p5
I00
sS'jac'
p6
cnumpy.core.multiarray
_reconstruct
p7
(cnumpy
ndarray
p8
(I0
tp9
S'b'
p10
tp11
Rp12
(I1
(I3
tp13
cnumpy
dtype
p14
(S'f8'
p15
I0
I1
tp16
Rp17
(I3
S'<'
p18
NNNI-1
I-1
I0
tp19
bI00
S';\x86\xcd@\xe5\xb8\xa8?\x95\xabp\x98\x1e\xd1f?\t\xb9\x96\x86\x87\x83w\xbf'
p20
tp21
bsS'nfev'
p22
I602
sS'fun'
p23
F0.4506781348776448
sS'x'
p24
g7
(g8
(I0
tp25
g10
tp26
Rp27
(I1
(I3
tp28
g17
I00
S'g\x92\xb9\x13\x1f\xcc\xe8\xbf\xb5z\xaa\xa7\xd6c\x1b@l$\x92\xb3z\\\x11@'
p29
tp30
bsS'message'
p31
S'Maximum number of iterations has been exceeded.'
p32
sS'nhev'
p33
I600
sS'njev'
p34
I1201
stp35
Rp36
.