ccopy_reg
_reconstructor
p0
(cscipy.optimize.optimize
OptimizeResult
p1
c__builtin__
dict
p2
(dp3
S'status'
p4
I3
sS'nhev'
p5
I1
sS'success'
p6
I00
sS'jac'
p7
cnumpy.core.multiarray
_reconstruct
p8
(cnumpy
ndarray
p9
(I0
tp10
S'b'
p11
tp12
Rp13
(I1
(I3
tp14
cnumpy
dtype
p15
(S'f8'
p16
I0
I1
tp17
Rp18
(I3
S'<'
p19
NNNI-1
I-1
I0
tp20
bI00
S'&\xc0K[\x13\xa4R@K0\xc0\x8apl;@\xf3V\xe9p\xablK\xc0'
p21
tp22
bsS'nfev'
p23
I1
sS'fun'
p24
cnumpy.core.multiarray
scalar
p25
(g18
S'\xbe\xf6\xb2<(\xb6=@'
p26
tp27
Rp28
sS'x'
p29
g8
(g9
(I0
tp30
g11
tp31
Rp32
(I1
(I3
tp33
g18
I00
S'rw\xad\xb0\xaa\xc7\xf2\xbf\x96\x16g\x04\xe6\xf3!@\xca\xc2Q*\xe3t\x10@'
p34
tp35
bsS'message'
p36
S'A linalg error occurred, such as a non-psd Hessian.'
p37
sS'hess'
p38
g8
(g9
(I0
tp39
g11
tp40
Rp41
(I1
(I3
I3
tp42
g18
I00
S'\x80+g%[\xf4<@\r\xb4o#%1(@\x0b\x9b;\xd2\x8578\xc0\r\xb4o#%1(@\x80%\xbf\x92\xb6\x81\x04\xc0i\xab\xea,%^\x14@\x0b\x9b;\xd2\x8578\xc0i\xab\xea,%^\x14@\x9d\x9e6\x0e\x9e{$\xc0'
p43
tp44
bsS'njev'
p45
I1
sS'nit'
p46
I0
stp47
Rp48
.