ccopy_reg
_reconstructor
p0
(cscipy.optimize.optimize
OptimizeResult
p1
c__builtin__
dict
p2
(dp3
S'status'
p4
I2
sS'nhev'
p5
I20
sS'success'
p6
I00
sS'jac'
p7
cnumpy.core.multiarray
_reconstruct
p8
(cnumpy
ndarray
p9
(I0
tp10
S'b'
p11
tp12
Rp13
(I1
(I3
tp14
cnumpy
dtype
p15
(S'f8'
p16
I0
I1
tp17
Rp18
(I3
S'<'
p19
NNNI-1
I-1
I0
tp20
bI00
S'3:\xb7\xe6\x96\x14\x86\xbf\x90\xf2 i>Er\xbf\xe5$\x02C\xfcG\x82?'
p21
tp22
bsS'nfev'
p23
I48
sS'fun'
p24
cnumpy.core.multiarray
scalar
p25
(g18
S'g\x1e\xe1\xa4\x90n\xdb?'
p26
tp27
Rp28
sS'x'
p29
g8
(g9
(I0
tp30
g11
tp31
Rp32
(I1
(I3
tp33
g18
I00
S'\xf3k\x96G6[\xf5\xbf\x8bH\n\xab\x0b\xd2 @\xe1d-\xc1\xdf\x19\x12@'
p34
tp35
bsS'message'
p36
S'A bad approximation caused failure to predict improvement.'
p37
sS'hess'
p38
g8
(g9
(I0
tp39
g11
tp40
Rp41
(I1
(I3
I3
tp42
g18
I00
S'\xd4||\xd3\xdb}T@\x18\x12\x86o1QB@\xc2\xba\x8dD+QR\xc0\x18\x12\x86o1QB@\xf8\x1d\x96\xf8\xf1r0@9Y\xd7/^s@\xc0\xc2\xba\x8dD+QR\xc09Y\xd7/^s@\xc0?\x16\x9e\x1f\rsP@'
p43
tp44
bsS'njev'
p45
I20
sS'nit'
p46
I46
stp47
Rp48
.