ccopy_reg
_reconstructor
p0
(cscipy.optimize.optimize
OptimizeResult
p1
c__builtin__
dict
p2
(dp3
S'status'
p4
I2
sS'success'
p5
I00
sS'jac'
p6
cnumpy.core.multiarray
_reconstruct
p7
(cnumpy
ndarray
p8
(I0
tp9
S'b'
p10
tp11
Rp12
(I1
(I3
tp13
cnumpy
dtype
p14
(S'f8'
p15
I0
I1
tp16
Rp17
(I3
S'<'
p18
NNNI-1
I-1
I0
tp19
bI00
S'\xcf"\xce7\xb2W=\xbf\xf4\x95\x13\xd11\xe23\xbf\xc6v\x81g\x9648?'
p20
tp21
bsS'nfev'
p22
I56
sS'fun'
p23
F0.4286224276505917
sS'x'
p24
g7
(g8
(I0
tp25
g10
tp26
Rp27
(I1
(I3
tp28
g17
I00
S'\xb1\x1f6o1P\xf5\xbf\x13\xd9\xbf\xc8\x00\x85\x1f@\xaa\xd9\xba\xffC\r\x11@'
p29
tp30
bsS'message'
p31
S'Desired error not necessarily achieved due to precision loss.'
p32
sS'njev'
p33
I47
stp34
Rp35
.