ccopy_reg
_reconstructor
p0
(cscipy.optimize.optimize
OptimizeResult
p1
c__builtin__
dict
p2
(dp3
S'status'
p4
I2
sS'success'
p5
I00
sS'jac'
p6
cnumpy.core.multiarray
_reconstruct
p7
(cnumpy
ndarray
p8
(I0
tp9
S'b'
p10
tp11
Rp12
(I1
(I3
tp13
cnumpy
dtype
p14
(S'f8'
p15
I0
I1
tp16
Rp17
(I3
S'<'
p18
NNNI-1
I-1
I0
tp19
bI00
S'\xca\x0f\xf1\xb1\x06\xc9\r?<v{\x12\x05U\xef\xbe\x8a\xb6\xa4\xb5\x0b\xa6\x17?'
p20
tp21
bsS'nfev'
p22
I46
sS'fun'
p23
F0.42862184993319746
sS'x'
p24
g7
(g8
(I0
tp25
g10
tp26
Rp27
(I1
(I3
tp28
g17
I00
S"\xfa\xe3\x0b\x1bDO\xf5\xbfj\x9b:\xf2\xbc:\x1f@<'4\xc0b\xe8\x10@"
p29
tp30
bsS'message'
p31
S'Desired error not necessarily achieved due to precision loss.'
p32
sS'njev'
p33
I34
stp34
Rp35
.