ccopy_reg
_reconstructor
p0
(cscipy.optimize.optimize
OptimizeResult
p1
c__builtin__
dict
p2
(dp3
S'status'
p4
I0
sS'nfev'
p5
I137
sS'success'
p6
I01
sS'fun'
p7
cnumpy.core.multiarray
scalar
p8
(cnumpy
dtype
p9
(S'f8'
p10
I0
I1
tp11
Rp12
(I3
S'<'
p13
NNNI-1
I-1
I0
tp14
bS'RkRd\x89n\xdb?'
p15
tp16
Rp17
sS'x'
p18
cnumpy.core.multiarray
_reconstruct
p19
(cnumpy
ndarray
p20
(I0
tp21
S'b'
p22
tp23
Rp24
(I1
(I3
tp25
g12
I00
S'\x84|\x9cY\x8fO\xf5\xbf\x96I\x01\x82\x05\xa9 @\x18\xbb\xcc\x07\x01\xf4\x11@'
p26
tp27
bsS'message'
p28
S'Optimization terminated successfully.'
p29
sS'nit'
p30
I67
stp31
Rp32
.