ccopy_reg
_reconstructor
p0
(cscipy.optimize.optimize
OptimizeResult
p1
c__builtin__
dict
p2
(dp3
S'status'
p4
I2
sS'success'
p5
I00
sS'jac'
p6
cnumpy.core.multiarray
_reconstruct
p7
(cnumpy
ndarray
p8
(I0
tp9
S'b'
p10
tp11
Rp12
(I1
(I3
tp13
cnumpy
dtype
p14
(S'f8'
p15
I0
I1
tp16
Rp17
(I3
S'<'
p18
NNNI-1
I-1
I0
tp19
bI00
S'5\xa3\xc8X}\x0f`\xbfUa,uBEP\xbf\xca\xa2G>y\x1c_?'
p20
tp21
bsS'nfev'
p22
I97
sS'fun'
p23
cnumpy.core.multiarray
scalar
p24
(g17
S'\xc3\xdc^\xe7\x8bn\xdb?'
p25
tp26
Rp27
sS'x'
p28
g7
(g8
(I0
tp29
g10
tp30
Rp31
(I1
(I3
tp32
g17
I00
S"\xb5\x88'\xef/N\xf5\xbf@n\xb4*\x01m\x1b@\x1bzle\xb4\x03\x0e@"
p33
tp34
bsS'message'
p35
S'Desired error not necessarily achieved due to precision loss.'
p36
sS'njev'
p37
I71
stp38
Rp39
.