ccopy_reg
_reconstructor
p0
(cscipy.optimize.optimize
OptimizeResult
p1
c__builtin__
dict
p2
(dp3
S'status'
p4
I2
sS'success'
p5
I00
sS'jac'
p6
cnumpy.core.multiarray
_reconstruct
p7
(cnumpy
ndarray
p8
(I0
tp9
S'b'
p10
tp11
Rp12
(I1
(I3
tp13
cnumpy
dtype
p14
(S'f8'
p15
I0
I1
tp16
Rp17
(I3
S'<'
p18
NNNI-1
I-1
I0
tp19
bI00
S'\x046\xadm\xc3\xb2\'?h\x0cy\xca\xdf\x0f\x03?\x82"\xf8\x1a\xf5\xb3\xe7>'
p20
tp21
bsS'nfev'
p22
I52
sS'fun'
p23
F0.42862157997799005
sS'x'
p24
g7
(g8
(I0
tp25
g10
tp26
Rp27
(I1
(I3
tp28
g17
I00
S'\xd5\x01\xe2\x0c~O\xf5\xbf#+\xf3m\t\x1e\x1e@\xd6\xa4e\xa2\xf8Y\x10@'
p29
tp30
bsS'message'
p31
S'Desired error not necessarily achieved due to precision loss.'
p32
sS'njev'
p33
I36
stp34
Rp35
.