ccopy_reg
_reconstructor
p0
(cscipy.optimize.optimize
OptimizeResult
p1
c__builtin__
dict
p2
(dp3
S'status'
p4
I1
sS'success'
p5
I01
sS'nfev'
p6
I49
sS'fun'
p7
cnumpy.core.multiarray
scalar
p8
(cnumpy
dtype
p9
(S'f8'
p10
I0
I1
tp11
Rp12
(I3
S'<'
p13
NNNI-1
I-1
I0
tp14
bS'y\xc0+j\x95n\xdb?'
p15
tp16
Rp17
sS'x'
p18
cnumpy.core.multiarray
_reconstruct
p19
(cnumpy
ndarray
p20
(I0
tp21
S'b'
p22
tp23
Rp24
(I1
(I3
tp25
g12
I00
S'\xa8\xb9\x0c\xab\x82U\xf5\xbfR\xc3W^qU\x17@-\x90\xe6\xa8 \xe8\t@'
p26
tp27
bsS'message'
p28
S'Converged (|f_n-f_(n-1)| ~= 0)'
p29
sS'jac'
p30
g19
(g20
(I0
tp31
g22
tp32
Rp33
(I1
(I3
tp34
g12
I00
S'\xcb\x118-\x80np\xbfqE\xa6$I\xdb[\xbf\xbc5\x90f\xf50k?'
p35
tp36
bsS'nit'
p37
I9
stp38
Rp39
.