ccopy_reg
_reconstructor
p0
(cscipy.optimize.optimize
OptimizeResult
p1
c__builtin__
dict
p2
(dp3
S'status'
p4
I0
sS'success'
p5
I01
sS'direc'
p6
cnumpy.core.multiarray
_reconstruct
p7
(cnumpy
ndarray
p8
(I0
tp9
S'b'
p10
tp11
Rp12
(I1
(I3
I3
tp13
cnumpy
dtype
p14
(S'f8'
p15
I0
I1
tp16
Rp17
(I3
S'<'
p18
NNNI-1
I-1
I0
tp19
bI00
S"q\xb48BPa\xc7?\xf1\xabm\xd3\xbdhU?\xf8jl4v.\xce?\xd1%E\x9c\xf0\x0e\xc4?\xa1\x920+8\x8c\r\xbf\x83_!l\xde\xb0\xc9?1\x88Q'\xd8\x80\xa8?\xce\xa9\xebD.p ?\xed\xb7\xdc:\xe9?\xaa?"
p20
tp21
bsS'nfev'
p22
I1166
sS'fun'
p23
cnumpy.core.multiarray
scalar
p24
(g17
S'\x94RN\x85\x9en\xdb?'
p25
tp26
Rp27
sS'x'
p28
g7
(g8
(I0
tp29
g10
tp30
Rp31
(I1
(I3
tp32
g17
I00
S'\x13\x1d;\xed\xd2W\xf5\xbfp[\xff\xf2q\xea\x15@\x07^\x02\xbe\xc5{\x08@'
p33
tp34
bsS'message'
p35
S'Optimization terminated successfully.'
p36
sS'nit'
p37
I20
stp38
Rp39
.