ccopy_reg
_reconstructor
p0
(cscipy.optimize.optimize
OptimizeResult
p1
c__builtin__
dict
p2
(dp3
S'status'
p4
I4
sS'success'
p5
I00
sS'nfev'
p6
I88
sS'fun'
p7
cnumpy.core.multiarray
scalar
p8
(cnumpy
dtype
p9
(S'f8'
p10
I0
I1
tp11
Rp12
(I3
S'<'
p13
NNNI-1
I-1
I0
tp14
bS'V\x1c\xc3\x18\xb5B\xde?'
p15
tp16
Rp17
sS'x'
p18
cnumpy.core.multiarray
_reconstruct
p19
(cnumpy
ndarray
p20
(I0
tp21
S'b'
p22
tp23
Rp24
(I1
(I3
tp25
g12
I00
S'\xd0\x07\xf7W\xcf\xac\xdc?;\xd8\x83\x97X\xea\x1d@BL\xd2\x16\x8f\x92\x17@'
p26
tp27
bsS'message'
p28
S'Linear search failed'
p29
sS'jac'
p30
g19
(g20
(I0
tp31
g22
tp32
Rp33
(I1
(I3
tp34
g12
I00
S'\xd9\xde\xbba\xfa\xfd\xad\xbf^\x81\xe5@\x84\xf3\x9f\xbfq6\x1eF\xed\xf7\xaf?'
p35
tp36
bsS'nit'
p37
I2
stp38
Rp39
.