ccopy_reg
_reconstructor
p0
(cscipy.optimize.optimize
OptimizeResult
p1
c__builtin__
dict
p2
(dp3
S'status'
p4
I2
sS'success'
p5
I00
sS'jac'
p6
cnumpy.core.multiarray
_reconstruct
p7
(cnumpy
ndarray
p8
(I0
tp9
S'b'
p10
tp11
Rp12
(I1
(I3
tp13
cnumpy
dtype
p14
(S'f8'
p15
I0
I1
tp16
Rp17
(I3
S'<'
p18
NNNI-1
I-1
I0
tp19
bI00
S'\xde\xc3k\xf0\xea\xad\x10\xc0?\x18E\xb0*\x93\x00\xc0\xcaw\xdc\xe6H\x93\x10@'
p20
tp21
bsS'nfev'
p22
I16
sS'fun'
p23
F0.5879569389887482
sS'x'
p24
g7
(g8
(I0
tp25
g10
tp26
Rp27
(I1
(I3
tp28
g17
I00
S'\xe8\xcfq\x83\x0e\xc5\xd5\xbf\x19R\x06\xf2\x1ap\x1b@)\xe2;ayd\x13@'
p29
tp30
bsS'message'
p31
S'Desired error not necessarily achieved due to precision loss.'
p32
sS'njev'
p33
I4
stp34
Rp35
.