ccopy_reg
_reconstructor
p0
(cscipy.optimize.optimize
OptimizeResult
p1
c__builtin__
dict
p2
(dp3
S'status'
p4
I4
sS'success'
p5
I00
sS'nfev'
p6
I66
sS'fun'
p7
cnumpy.core.multiarray
scalar
p8
(cnumpy
dtype
p9
(S'f8'
p10
I0
I1
tp11
Rp12
(I3
S'<'
p13
NNNI-1
I-1
I0
tp14
bS'\xccD\xb8\x93d\xf96@'
p15
tp16
Rp17
sS'x'
p18
cnumpy.core.multiarray
_reconstruct
p19
(cnumpy
ndarray
p20
(I0
tp21
S'b'
p22
tp23
Rp24
(I1
(I3
tp25
g12
I00
S'b\x86\x1e\xf9\xf6{\t\xc0\xfbq\xb7\x89\x81\xc1\x1a@\xde\xe5\x87\xfb\xd0\x0c\t@'
p26
tp27
bsS'message'
p28
S'Linear search failed'
p29
sS'jac'
p30
g19
(g20
(I0
tp31
g22
tp32
Rp33
(I1
(I3
tp34
g12
I00
S'X\xc8M\xfa\xd4$#\xc0F\xb9?\x1c\x7f(\x01\xc0\x05\xef\ri\xbf(\x11@'
p35
tp36
bsS'nit'
p37
I0
stp38
Rp39
.