ccopy_reg
_reconstructor
p0
(cscipy.optimize.optimize
OptimizeResult
p1
c__builtin__
dict
p2
(dp3
S'status'
p4
I2
sS'success'
p5
I00
sS'jac'
p6
cnumpy.core.multiarray
_reconstruct
p7
(cnumpy
ndarray
p8
(I0
tp9
S'b'
p10
tp11
Rp12
(I1
(I3
tp13
cnumpy
dtype
p14
(S'f8'
p15
I0
I1
tp16
Rp17
(I3
S'<'
p18
NNNI-1
I-1
I0
tp19
bI00
S'%\xec\xefY=\x074\xbf>X\x1f\xf9\xdc\x06\x13?\xcd\xfc\x1b[H\x84/\xbf'
p20
tp21
bsS'nfev'
p22
I32
sS'fun'
p23
F0.4286215533207266
sS'x'
p24
g7
(g8
(I0
tp25
g10
tp26
Rp27
(I1
(I3
tp28
g17
I00
S'"\xd26:\xedT\xf5\xbf\x98J\xd7\xf7\xe8\xb6!@\x96\x7f\xb1\xc7X\x00\x13@'
p29
tp30
bsS'message'
p31
S'Desired error not necessarily achieved due to precision loss.'
p32
sS'nhev'
p33
I9
sS'njev'
p34
I28
stp35
Rp36
.