ccopy_reg
_reconstructor
p0
(cscipy.optimize.optimize
OptimizeResult
p1
c__builtin__
dict
p2
(dp3
S'status'
p4
I3
sS'nhev'
p5
I1
sS'success'
p6
I00
sS'jac'
p7
cnumpy.core.multiarray
_reconstruct
p8
(cnumpy
ndarray
p9
(I0
tp10
S'b'
p11
tp12
Rp13
(I1
(I3
tp14
cnumpy
dtype
p15
(S'f8'
p16
I0
I1
tp17
Rp18
(I3
S'<'
p19
NNNI-1
I-1
I0
tp20
bI00
S"Bw%\xab2\x1eP@U\xbeu\xf2\xc4k'@<\xe7\xc0\xf9jk7\xc0"
p21
tp22
bsS'nfev'
p23
I1
sS'fun'
p24
cnumpy.core.multiarray
scalar
p25
(g18
S'\xb9\x07A#\xfa\xdbI@'
p26
tp27
Rp28
sS'x'
p29
g8
(g9
(I0
tp30
g11
tp31
Rp32
(I1
(I3
tp33
g18
I00
S'vM\xfd\xbc\xbd\xa6\xf4\xbf\xf8\xa5-\xdcPJ @:\xac"\xb8\xde\x96\x07@'
p34
tp35
bsS'message'
p36
S'A linalg error occurred, such as a non-psd Hessian.'
p37
sS'hess'
p38
g8
(g9
(I0
tp39
g11
tp40
Rp41
(I1
(I3
I3
tp42
g18
I00
S"%O*#\xf7\x0cU\xc0(F5\xd0\xc2\xd70\xc0bk\x9fb\\\xd7@@(F5\xd0\xc2\xd70\xc0|\x82\xe6\xabJ\x08'\xc0\x9b+ ic\xfa6@bk\x9fb\\\xd7@@\x9b+ ic\xfa6@f\xf3\x9e\xa2\xd7\xffF\xc0"
p43
tp44
bsS'njev'
p45
I1
sS'nit'
p46
I0
stp47
Rp48
.