ccopy_reg
_reconstructor
p0
(cscipy.optimize.optimize
OptimizeResult
p1
c__builtin__
dict
p2
(dp3
S'status'
p4
I3
sS'nhev'
p5
I1
sS'success'
p6
I00
sS'jac'
p7
cnumpy.core.multiarray
_reconstruct
p8
(cnumpy
ndarray
p9
(I0
tp10
S'b'
p11
tp12
Rp13
(I1
(I3
tp14
cnumpy
dtype
p15
(S'f8'
p16
I0
I1
tp17
Rp18
(I3
S'<'
p19
NNNI-1
I-1
I0
tp20
bI00
S'\xd6\x0bh\xfd\xe3\x8fL@Lu\xf4\xa1\xf6R<@B]\xb5\xfe\xf1RL\xc0'
p21
tp22
bsS'nfev'
p23
I1
sS'fun'
p24
cnumpy.core.multiarray
scalar
p25
(g18
S'\x8d\x0c\xea\x18\xa8l.@'
p26
tp27
Rp28
sS'x'
p29
g8
(g9
(I0
tp30
g11
tp31
Rp32
(I1
(I3
tp33
g18
I00
S'\x805\xffc\x81\r\xcf?\xd4\xd1\xf1\x91\\\xec\x1c@;\xbek9\x9e\x13\x14@'
p34
tp35
bsS'message'
p36
S'A linalg error occurred, such as a non-psd Hessian.'
p37
sS'hess'
p38
g8
(g9
(I0
tp39
g11
tp40
Rp41
(I1
(I3
I3
tp42
g18
I00
S'\xe8mB}\t\xdeX@\xe3\xf3\xdd3C\xb9H@\xb7\x9aL\xe9\xdb\xb6X\xc0\xe3\xf3\xdd3C\xb9H@Si\xa9\x13ZP8@\xfa\t\x8dP\xa0OH\xc0\xb7\x9aL\xe9\xdb\xb6X\xc0\xfa\t\x8dP\xa0OH\xc0\r\xa0_\xf5`MX@'
p43
tp44
bsS'njev'
p45
I1
sS'nit'
p46
I0
stp47
Rp48
.