ccopy_reg
_reconstructor
p0
(cscipy.optimize.optimize
OptimizeResult
p1
c__builtin__
dict
p2
(dp3
S'status'
p4
I2
sS'success'
p5
I00
sS'jac'
p6
cnumpy.core.multiarray
_reconstruct
p7
(cnumpy
ndarray
p8
(I0
tp9
S'b'
p10
tp11
Rp12
(I1
(I3
tp13
cnumpy
dtype
p14
(S'f8'
p15
I0
I1
tp16
Rp17
(I3
S'<'
p18
NNNI-1
I-1
I0
tp19
bI00
S'\x17\xce01[\xad\x06?\xbd \xdf\xa4sB\xf3>}n\x1a\xf5\x13\xfb\xd0>'
p20
tp21
bsS'nfev'
p22
I41
sS'fun'
p23
F0.42862336937778495
sS'x'
p24
g7
(g8
(I0
tp25
g10
tp26
Rp27
(I1
(I3
tp28
g17
I00
S'[\xfa\x17\x94KQ\xf5\xbf\xe6\x00\xb7\xb3C\xa8\x18@\xde\xb8\xa4\x02/=\x0b@'
p29
tp30
bsS'message'
p31
S'Desired error not necessarily achieved due to precision loss.'
p32
sS'nhev'
p33
I21
sS'njev'
p34
I49
stp35
Rp36
.