ccopy_reg
_reconstructor
p0
(cscipy.optimize.optimize
OptimizeResult
p1
c__builtin__
dict
p2
(dp3
S'status'
p4
I0
sS'nhev'
p5
I10
sS'success'
p6
I01
sS'jac'
p7
cnumpy.core.multiarray
_reconstruct
p8
(cnumpy
ndarray
p9
(I0
tp10
S'b'
p11
tp12
Rp13
(I1
(I3
tp14
cnumpy
dtype
p15
(S'f8'
p16
I0
I1
tp17
Rp18
(I3
S'<'
p19
NNNI-1
I-1
I0
tp20
bI00
S'\xd0\x98\xf2^\x9fY\x16?f\xa7\xe1\xa2@\xff\xf4\xbeWY\xba,\x177\x07\xbf'
p21
tp22
bsS'nfev'
p23
I11
sS'fun'
p24
cnumpy.core.multiarray
scalar
p25
(g18
S'\xcc\t]g\x92n\xdb?'
p26
tp27
Rp28
sS'x'
p29
g8
(g9
(I0
tp30
g11
tp31
Rp32
(I1
(I3
tp33
g18
I00
S'\x0ct\x1a\xc4}Q\xf5\xbf\xa1=$\xbc\xb0\x08\x19@|"\xf8|\x7f\x9d\x0b@'
p34
tp35
bsS'message'
p36
S'Optimization terminated successfully.'
p37
sS'hess'
p38
g8
(g9
(I0
tp39
g11
tp40
Rp41
(I1
(I3
I3
tp42
g18
I00
S'\xde\xa8j\x9a\x8b}T@#xN\tpSB@\xf8\x05\xe5\x8chSR\xc0#xN\tpSB@\xa1J\x1bJ\x10w0@\xd1\xc6\xbf<zw@\xc0\xf8\x05\xe5\x8chSR\xc0\xd1\xc6\xbf<zw@\xc0\x86\xea\x9d\x1f\x19wP@'
p43
tp44
bsS'njev'
p45
I11
sS'nit'
p46
I10
stp47
Rp48
.