ccopy_reg
_reconstructor
p0
(cscipy.optimize.optimize
OptimizeResult
p1
c__builtin__
dict
p2
(dp3
S'status'
p4
I0
sS'success'
p5
I01
sS'jac'
p6
cnumpy.core.multiarray
_reconstruct
p7
(cnumpy
ndarray
p8
(I0
tp9
S'b'
p10
tp11
Rp12
(I1
(I3
tp13
cnumpy
dtype
p14
(S'f8'
p15
I0
I1
tp16
Rp17
(I3
S'<'
p18
NNNI-1
I-1
I0
tp19
bI00
S'\xc4\x9c~gf\x160\xbf+\xe7\xb9\xc7\xb1\xf6\x16\xbf!\xec~\x8d\x97\xf0-?'
p20
tp21
bsS'nfev'
p22
I15
sS'fun'
p23
F0.42862324524743545
sS'x'
p24
g7
(g8
(I0
tp25
g10
tp26
Rp27
(I1
(I3
tp28
g17
I00
S'\xfc\xe5wj\xb3Q\xf5\xbfS\x13X\x01\xd4=\x19@@\xef*\xb9\x84\xd2\x0b@'
p29
tp30
bsS'message'
p31
S'Optimization terminated successfully.'
p32
sS'nhev'
p33
I13
sS'njev'
p34
I27
stp35
Rp36
.