ccopy_reg
_reconstructor
p0
(cscipy.optimize.optimize
OptimizeResult
p1
c__builtin__
dict
p2
(dp3
S'status'
p4
I2
sS'nhev'
p5
I13
sS'success'
p6
I00
sS'jac'
p7
cnumpy.core.multiarray
_reconstruct
p8
(cnumpy
ndarray
p9
(I0
tp10
S'b'
p11
tp12
Rp13
(I1
(I3
tp14
cnumpy
dtype
p15
(S'f8'
p16
I0
I1
tp17
Rp18
(I3
S'<'
p19
NNNI-1
I-1
I0
tp20
bI00
S'!\xf8\xff\xb6\xa2\xd6\\\xbfU\x15i\xcfl\x1bD\xbf\xe2\xc7\x84\xff\x1e:T?'
p21
tp22
bsS'nfev'
p23
I39
sS'fun'
p24
cnumpy.core.multiarray
scalar
p25
(g18
S'\n\x8b\xed\xa4\x89n\xdb?'
p26
tp27
Rp28
sS'x'
p29
g8
(g9
(I0
tp30
g11
tp31
Rp32
(I1
(I3
tp33
g18
I00
S'\x10\r!\x9a\x02U\xf5\xbf\x9c\xc1\xa3\xd3yO @e\x9b\xdeC\xe9\x98\x11@'
p34
tp35
bsS'message'
p36
S'A bad approximation caused failure to predict improvement.'
p37
sS'hess'
p38
g8
(g9
(I0
tp39
g11
tp40
Rp41
(I1
(I3
I3
tp42
g18
I00
S'\n\x85\x1c]c~T@>\xd3M\xe2GSB@\xa6\xe4\x92\xa3RSR\xc0>\xd3M\xe2GSB@}{\t&Av0@\xd34F&mv@\xc0\xa6\xe4\x92\xa3RSR\xc0\xd34F&mv@\xc0W\xeb\x1a2FvP@'
p43
tp44
bsS'njev'
p45
I13
sS'nit'
p46
I37
stp47
Rp48
.