ccopy_reg
_reconstructor
p0
(cscipy.optimize.optimize
OptimizeResult
p1
c__builtin__
dict
p2
(dp3
S'status'
p4
I2
sS'success'
p5
I00
sS'nfev'
p6
I129
sS'fun'
p7
cnumpy.core.multiarray
scalar
p8
(cnumpy
dtype
p9
(S'f8'
p10
I0
I1
tp11
Rp12
(I3
S'<'
p13
NNNI-1
I-1
I0
tp14
bS'\xe5\xca\xff\xfd\x85n\xdb?'
p15
tp16
Rp17
sS'x'
p18
cnumpy.core.multiarray
_reconstruct
p19
(cnumpy
ndarray
p20
(I0
tp21
S'b'
p22
tp23
Rp24
(I1
(I3
tp25
g12
I00
S'go\x07@\x1fO\xf5\xbf\xf0\xb0\xf9\x05r\xe8!@\x85\xac\xc4\x01\x803\x13@'
p26
tp27
bsS'message'
p28
S'ABNORMAL_TERMINATION_IN_LNSRCH'
p29
sS'jac'
p30
g19
(g20
(I0
tp31
g22
tp32
Rp33
(I1
(I3
tp34
g12
I00
S"\x0b\x89\xfb\xb9~/\x19?\xe4\xec\x8f0\xd3\xf3\x03?\x00]p\x11'\xa5\xf1>"
p35
tp36
bsS'nit'
p37
I19
stp38
Rp39
.