ccopy_reg
_reconstructor
p0
(cscipy.optimize.optimize
OptimizeResult
p1
c__builtin__
dict
p2
(dp3
S'status'
p4
I0
sS'nhev'
p5
I13
sS'success'
p6
I01
sS'jac'
p7
cnumpy.core.multiarray
_reconstruct
p8
(cnumpy
ndarray
p9
(I0
tp10
S'b'
p11
tp12
Rp13
(I1
(I3
tp14
cnumpy
dtype
p15
(S'f8'
p16
I0
I1
tp17
Rp18
(I3
S'<'
p19
NNNI-1
I-1
I0
tp20
bI00
S'H\xad]D\xd8Y\x08\xbfp\xbeel|\xb2\xbc>\xe1\x1d\xfd^\xadC\x12\xbf'
p21
tp22
bsS'nfev'
p23
I15
sS'fun'
p24
cnumpy.core.multiarray
scalar
p25
(g18
S'by\x94\xcd\x92n\xdb?'
p26
tp27
Rp28
sS'x'
p29
g8
(g9
(I0
tp30
g11
tp31
Rp32
(I1
(I3
tp33
g18
I00
S'b<\x9e\xce\x96R\xf5\xbf7\xcf6A\x15J\x18@\x15+\x9b\x87H\xde\n@'
p34
tp35
bsS'message'
p36
S'Optimization terminated successfully.'
p37
sS'hess'
p38
g8
(g9
(I0
tp39
g11
tp40
Rp41
(I1
(I3
I3
tp42
g18
I00
S'\xcd\x93e5q~T@\xf8\xe1\x8bb_SB@Z\xe8\xac\xe7\x1fSR\xc0\xf8\xe1\x8bb_SB@\xe2\xc4\x05\xf5\xdav0@N~\xaa\x84\xe1v@\xc0Z\xe8\xac\xe7\x1fSR\xc0N~\xaa\x84\xe1v@\xc0\x88q\xfe=\xf9vP@'
p43
tp44
bsS'njev'
p45
I14
sS'nit'
p46
I14
stp47
Rp48
.