ccopy_reg
_reconstructor
p0
(cscipy.optimize.optimize
OptimizeResult
p1
c__builtin__
dict
p2
(dp3
S'status'
p4
I2
sS'success'
p5
I00
sS'jac'
p6
cnumpy.core.multiarray
_reconstruct
p7
(cnumpy
ndarray
p8
(I0
tp9
S'b'
p10
tp11
Rp12
(I1
(I3
tp13
cnumpy
dtype
p14
(S'f8'
p15
I0
I1
tp16
Rp17
(I3
S'<'
p18
NNNI-1
I-1
I0
tp19
bI00
S"\x80/\xd2D'z#\xbfU*\xed\x17\xd8\xbc\xf6\xbei\xeegl\x94&\x1c?"
p20
tp21
bsS'nfev'
p22
I41
sS'fun'
p23
cnumpy.core.multiarray
scalar
p24
(g17
S'\xf6\xa9F\x16\x8bn\xdb?'
p25
tp26
Rp27
sS'x'
p28
g7
(g8
(I0
tp29
g10
tp30
Rp31
(I1
(I3
tp32
g17
I00
S'\xb2U.X\x02Q\xf5\xbfa\xceA\x95\xfc\xfe\x1d@\x161N\xa1\x06J\x10@'
p33
tp34
bsS'message'
p35
S'Desired error not necessarily achieved due to precision loss.'
p36
sS'nhev'
p37
I14
sS'njev'
p38
I40
stp39
Rp40
.