ccopy_reg
_reconstructor
p0
(cscipy.optimize.optimize
OptimizeResult
p1
c__builtin__
dict
p2
(dp3
S'status'
p4
I2
sS'success'
p5
I00
sS'jac'
p6
cnumpy.core.multiarray
_reconstruct
p7
(cnumpy
ndarray
p8
(I0
tp9
S'b'
p10
tp11
Rp12
(I1
(I3
tp13
cnumpy
dtype
p14
(S'f8'
p15
I0
I1
tp16
Rp17
(I3
S'<'
p18
NNNI-1
I-1
I0
tp19
bI00
S'\x98\x1cNF\x15q-\xbf\xe98\xb12\x86\xbc\xce\xbeM>\xe2\x16L\x80$?'
p20
tp21
bsS'nfev'
p22
I36
sS'fun'
p23
F0.4286224272477142
sS'x'
p24
g7
(g8
(I0
tp25
g10
tp26
Rp27
(I1
(I3
tp28
g17
I00
S'\x84\x062%0U\xf5\xbf\xd5\xf9\xce\xe3\xc58\x19@\xed\xd8\x83F\x85\xcb\x0b@'
p29
tp30
bsS'message'
p31
S'Desired error not necessarily achieved due to precision loss.'
p32
sS'nhev'
p33
I13
sS'njev'
p34
I36
stp35
Rp36
.