ccopy_reg
_reconstructor
p0
(cscipy.optimize.optimize
OptimizeResult
p1
c__builtin__
dict
p2
(dp3
S'status'
p4
I0
sS'nhev'
p5
I23
sS'success'
p6
I01
sS'jac'
p7
cnumpy.core.multiarray
_reconstruct
p8
(cnumpy
ndarray
p9
(I0
tp10
S'b'
p11
tp12
Rp13
(I1
(I3
tp14
cnumpy
dtype
p15
(S'f8'
p16
I0
I1
tp17
Rp18
(I3
S'<'
p19
NNNI-1
I-1
I0
tp20
bI00
S'\xf0K\x02\xb9o\n\x04?`\xf9\x1c\\\xe4\x98\xce\xbeE8f\x12b\xae\x0b?'
p21
tp22
bsS'nfev'
p23
I27
sS'fun'
p24
cnumpy.core.multiarray
scalar
p25
(g18
S'\x06<\xa2x\x8fn\xdb?'
p26
tp27
Rp28
sS'x'
p29
g8
(g9
(I0
tp30
g11
tp31
Rp32
(I1
(I3
tp33
g18
I00
S'\xa1apt\x7fN\xf5\xbfm"\xf09~\xcd\x1a@\x1a22?\xf6c\r@'
p34
tp35
bsS'message'
p36
S'Optimization terminated successfully.'
p37
sS'hess'
p38
g8
(g9
(I0
tp39
g11
tp40
Rp41
(I1
(I3
I3
tp42
g18
I00
S'w\xe8y\x8b;}T@\xe3\x97\x1d\xe4<TB@A]A\xe6<TR\xc0\xe3\x97\x1d\xe4<TB@\xad\xdct\x91\xa0x0@\x8f\x02-t\x9ax@\xc0A]A\xe6<TR\xc0\x8f\x02-t\x9ax@\xc0-\x1f\x8cm\xc5xP@'
p43
tp44
bsS'njev'
p45
I24
sS'nit'
p46
I26
stp47
Rp48
.