ccopy_reg
_reconstructor
p0
(cscipy.optimize.optimize
OptimizeResult
p1
c__builtin__
dict
p2
(dp3
S'nfev'
p4
I1719
sS'success'
p5
I01
sS'fun'
p6
cnumpy.core.multiarray
scalar
p7
(cnumpy
dtype
p8
(S'f8'
p9
I0
I1
tp10
Rp11
(I3
S'<'
p12
NNNI-1
I-1
I0
tp13
bS"'\xadA4Eo\xdb?"
p14
tp15
Rp16
sS'x'
p17
cnumpy.core.multiarray
_reconstruct
p18
(cnumpy
ndarray
p19
(I0
tp20
S'b'
p21
tp22
Rp23
(I1
(I3
tp24
g11
I00
S'\xdf%k\xb6\x06\x8d\xf5\xbf}\xfekxP\x86\x19@z;\xc0\x0c`\xf9\x0b@'
p25
tp26
bsS'message'
p27
S'Optimization terminated successfully.'
p28
sS'jac'
p29
g18
(g19
(I0
tp30
g21
tp31
Rp32
(I1
(I3
tp33
g11
I00
S'<\x82 l\xb7\x1a?@(\xc9\xbd1\xf9\xfeB@|\xf3F\xeb\x8a\x8c9@'
p34
tp35
bsS'nit'
p36
I22
stp37
Rp38
.