ccopy_reg
_reconstructor
p0
(cscipy.optimize.optimize
OptimizeResult
p1
c__builtin__
dict
p2
(dp3
S'status'
p4
I0
sS'nhev'
p5
I10
sS'success'
p6
I01
sS'jac'
p7
cnumpy.core.multiarray
_reconstruct
p8
(cnumpy
ndarray
p9
(I0
tp10
S'b'
p11
tp12
Rp13
(I1
(I3
tp14
cnumpy
dtype
p15
(S'f8'
p16
I0
I1
tp17
Rp18
(I3
S'<'
p19
NNNI-1
I-1
I0
tp20
bI00
S'\xa2\xb8\xc1\xc0\x99a\xac>\x053\xf23>\xa0\xf7\xbe\xa6f7\x18P\x19\t?'
p21
tp22
bsS'nfev'
p23
I12
sS'fun'
p24
cnumpy.core.multiarray
scalar
p25
(g18
S'\x90\x07B1\x8bn\xdb?'
p26
tp27
Rp28
sS'x'
p29
g8
(g9
(I0
tp30
g11
tp31
Rp32
(I1
(I3
tp33
g18
I00
S'\xc9\xcdN\x11\xbdO\xf5\xbf\xc4O\x02y\xf4,"@\x93\x9a6\xa2\xd6w\x13@'
p34
tp35
bsS'message'
p36
S'Optimization terminated successfully.'
p37
sS'hess'
p38
g8
(g9
(I0
tp39
g11
tp40
Rp41
(I1
(I3
I3
tp42
g18
I00
S'\xd0<|\xf7s}T@\x03\xddF+\x0fTB@*sM\r5TR\xc0\x03\xddF+\x0fTB@\x07PrB\x98x0@\x10\xe2\x81\xda3x@\xc0*sM\r5TR\xc0\x10\xe2\x81\xda3x@\xc0^\xcep\x90rxP@'
p43
tp44
bsS'njev'
p45
I11
sS'nit'
p46
I11
stp47
Rp48
.