ccopy_reg
_reconstructor
p0
(cscipy.optimize.optimize
OptimizeResult
p1
c__builtin__
dict
p2
(dp3
S'status'
p4
I2
sS'success'
p5
I00
sS'jac'
p6
cnumpy.core.multiarray
_reconstruct
p7
(cnumpy
ndarray
p8
(I0
tp9
S'b'
p10
tp11
Rp12
(I1
(I3
tp13
cnumpy
dtype
p14
(S'f8'
p15
I0
I1
tp16
Rp17
(I3
S'<'
p18
NNNI-1
I-1
I0
tp19
bI00
S'\xab\x97/\x02\x1f\x18\xeb?\xcf_\x16\x9c\n\x7f\xd8?\xdcU\x03\xdc\x87~\xe8\xbf'
p20
tp21
bsS'nfev'
p22
I18
sS'fun'
p23
F0.43330073642416506
sS'x'
p24
g7
(g8
(I0
tp25
g10
tp26
Rp27
(I1
(I3
tp28
g17
I00
S'\xd7\nJ\xc8P\xdb\xf5\xbf\x0b\x01\xfd\xb9s\x8a\x19@0dUj_\xba\x0b@'
p29
tp30
bsS'message'
p31
S'Desired error not necessarily achieved due to precision loss.'
p32
sS'njev'
p33
I6
stp34
Rp35
.