ccopy_reg
_reconstructor
p0
(cscipy.optimize.optimize
OptimizeResult
p1
c__builtin__
dict
p2
(dp3
S'status'
p4
I2
sS'success'
p5
I00
sS'jac'
p6
cnumpy.core.multiarray
_reconstruct
p7
(cnumpy
ndarray
p8
(I0
tp9
S'b'
p10
tp11
Rp12
(I1
(I3
tp13
cnumpy
dtype
p14
(S'f8'
p15
I0
I1
tp16
Rp17
(I3
S'<'
p18
NNNI-1
I-1
I0
tp19
bI00
S'\x8d\x8d\x99\xca\x14\xbc0\xc0d\xb8K\xc9\xe5U\xe8\xbf\xdcr"\x009]\xf8?'
p20
tp21
bsS'nfev'
p22
I45
sS'fun'
p23
cnumpy.core.multiarray
scalar
p24
(g17
S'[i+\xd1\x03\xab3@'
p25
tp26
Rp27
sS'x'
p28
g7
(g8
(I0
tp29
g10
tp30
Rp31
(I1
(I3
tp32
g17
I00
S'\xa9\x95\x0fW@b\t\xc0\x97\\\xcd\x9bXF"@\xc4\x85}\xa3\xdd\xb5\n@'
p33
tp34
bsS'message'
p35
S'Desired error not necessarily achieved due to precision loss.'
p36
sS'njev'
p37
I39
stp38
Rp39
.