ccopy_reg
_reconstructor
p0
(cscipy.optimize.optimize
OptimizeResult
p1
c__builtin__
dict
p2
(dp3
S'status'
p4
I3
sS'nhev'
p5
I1
sS'success'
p6
I00
sS'jac'
p7
cnumpy.core.multiarray
_reconstruct
p8
(cnumpy
ndarray
p9
(I0
tp10
S'b'
p11
tp12
Rp13
(I1
(I3
tp14
cnumpy
dtype
p15
(S'f8'
p16
I0
I1
tp17
Rp18
(I3
S'<'
p19
NNNI-1
I-1
I0
tp20
bI00
S"U\x9c\xd3{\xee??@\x1fZ\xefU\xc7<'@i*\x14\x07:<7\xc0"
p21
tp22
bsS'nfev'
p23
I1
sS'fun'
p24
cnumpy.core.multiarray
scalar
p25
(g18
S'\xaeXZ\xd0\xdf!R@'
p26
tp27
Rp28
sS'x'
p29
g8
(g9
(I0
tp30
g11
tp31
Rp32
(I1
(I3
tp33
g18
I00
S'\xe8\x9d\xe6&h\x15\xd8\xbf\x1e5c\n\r\xe0!@(\x0f)\xa8\xac\xc0\x10@'
p34
tp35
bsS'message'
p36
S'A linalg error occurred, such as a non-psd Hessian.'
p37
sS'hess'
p38
g8
(g9
(I0
tp39
g11
tp40
Rp41
(I1
(I3
I3
tp42
g18
I00
S"\xfa\xa4\x180\xceZR\xc0\xff('\xf3\xb5!=\xc0z\x9cf52 M@\xff('\xf3\xb5!=\xc0\x17\xb2\xc23}\x8f-\xc0\x0eq\x98F\xf0\x86=@z\x9cf52 M@\x0eq\x98F\xf0\x86=@\x92\xd6\xd5\x11\x8a\x8aM\xc0"
p43
tp44
bsS'njev'
p45
I1
sS'nit'
p46
I0
stp47
Rp48
.