ccopy_reg
_reconstructor
p0
(cscipy.optimize.optimize
OptimizeResult
p1
c__builtin__
dict
p2
(dp3
S'status'
p4
I2
sS'success'
p5
I00
sS'jac'
p6
cnumpy.core.multiarray
_reconstruct
p7
(cnumpy
ndarray
p8
(I0
tp9
S'b'
p10
tp11
Rp12
(I1
(I3
tp13
cnumpy
dtype
p14
(S'f8'
p15
I0
I1
tp16
Rp17
(I3
S'<'
p18
NNNI-1
I-1
I0
tp19
bI00
S'\xfe\x15\xf8*\x17\xb2\xf3>OA\xb0\x95d\xee\x12\xbf\n&\xee^\x0cu\x15?'
p20
tp21
bsS'nfev'
p22
I74
sS'fun'
p23
cnumpy.core.multiarray
scalar
p24
(g17
S'h\xa3gh\x88n\xdb?'
p25
tp26
Rp27
sS'x'
p28
g7
(g8
(I0
tp29
g10
tp30
Rp31
(I1
(I3
tp32
g17
I00
S'V\x02\xb2\xc2\x9cQ\xf5\xbfd\xe4\x1c\xff\xfd\xd4"@\x88:/\x97Z\x1f\x14@'
p33
tp34
bsS'message'
p35
S'Desired error not necessarily achieved due to precision loss.'
p36
sS'njev'
p37
I51
stp38
Rp39
.