ccopy_reg
_reconstructor
p0
(cscipy.optimize.optimize
OptimizeResult
p1
c__builtin__
dict
p2
(dp3
S'status'
p4
I2
sS'nhev'
p5
I20
sS'success'
p6
I00
sS'jac'
p7
cnumpy.core.multiarray
_reconstruct
p8
(cnumpy
ndarray
p9
(I0
tp10
S'b'
p11
tp12
Rp13
(I1
(I3
tp14
cnumpy
dtype
p15
(S'f8'
p16
I0
I1
tp17
Rp18
(I3
S'<'
p19
NNNI-1
I-1
I0
tp20
bI00
S"mM\xf2>43'\xbf4e\xd3p\xc8\xef\n?\x15u\n@Y\xbe2\xbf"
p21
tp22
bsS'nfev'
p23
I46
sS'fun'
p24
cnumpy.core.multiarray
scalar
p25
(g18
S'/\xa2\xb6C\x8an\xdb?'
p26
tp27
Rp28
sS'x'
p29
g8
(g9
(I0
tp30
g11
tp31
Rp32
(I1
(I3
tp33
g18
I00
S'\xa7\x8fT\x1b\x10T\xf5\xbf\x1c\xe6\xb7\x97w\n\x1d@7\xc9\xd9\xaa\xd3\x9d\x0f@'
p34
tp35
bsS'message'
p36
S'A bad approximation caused failure to predict improvement.'
p37
sS'hess'
p38
g8
(g9
(I0
tp39
g11
tp40
Rp41
(I1
(I3
I3
tp42
g18
I00
S'\xa6t\x88c\x95~T@yk,(\x82SB@k\x15\xb5\xa2\x87SR\xc0yk,(\x82SB@\xbd\xc9\x1fO~v0@3\x03\xfd\xdb\x83v@\xc0k\x15\xb5\xa2\x87SR\xc03\x03\xfd\xdb\x83v@\xc0;\x95h\xed\xa0vP@'
p43
tp44
bsS'njev'
p45
I20
sS'nit'
p46
I44
stp47
Rp48
.