ccopy_reg
_reconstructor
p0
(cscipy.optimize.optimize
OptimizeResult
p1
c__builtin__
dict
p2
(dp3
S'status'
p4
I0
sS'success'
p5
cnumpy.core.multiarray
scalar
p6
(cnumpy
dtype
p7
(S'b1'
p8
I0
I1
tp9
Rp10
(I3
S'|'
p11
NNNI-1
I-1
I0
tp12
bS'\x01'
p13
tp14
Rp15
sS'jac'
p16
cnumpy.core.multiarray
_reconstruct
p17
(cnumpy
ndarray
p18
(I0
tp19
S'b'
p20
tp21
Rp22
(I1
(I4
tp23
g7
(S'f8'
p24
I0
I1
tp25
Rp26
(I3
S'<'
p27
NNNI-1
I-1
I0
tp28
bI00
S'\x9bE\x02\x12\xf7\xaes\xbf\xe2F\xedM\x84Ib\xbf\x9f\xf3\xdb\xba\x84\xcfp?\x00\x00\x00\x00\x00\x00\x00\x00'
p29
tp30
bsS'nfev'
p31
I17
sS'fun'
p32
g6
(g26
S'(\xec= \x8en\xdb?'
p33
tp34
Rp35
sS'x'
p36
g17
(g18
(I0
tp37
g20
tp38
Rp39
(I1
(I3
tp40
g26
I00
S'\xd2\xd8>\x8d\xfbT\xf5\xbf\xfc\x9f\x19\xb6\x06\xf9\x1e@\x06M\t9\x00\xc6\x10@'
p41
tp42
bsS'message'
p43
S'Optimization terminated successfully.'
p44
sS'njev'
p45
I11
sS'nit'
p46
I11
stp47
Rp48
.