ccopy_reg
_reconstructor
p0
(cscipy.optimize.optimize
OptimizeResult
p1
c__builtin__
dict
p2
(dp3
S'status'
p4
I2
sS'success'
p5
I00
sS'nfev'
p6
I73
sS'fun'
p7
cnumpy.core.multiarray
scalar
p8
(cnumpy
dtype
p9
(S'f8'
p10
I0
I1
tp11
Rp12
(I3
S'<'
p13
NNNI-1
I-1
I0
tp14
bS'H\xd8\xaf\x9b\x89n\xdb?'
p15
tp16
Rp17
sS'x'
p18
cnumpy.core.multiarray
_reconstruct
p19
(cnumpy
ndarray
p20
(I0
tp21
S'b'
p22
tp23
Rp24
(I1
(I3
tp25
g12
I00
S'T\xc5o\xff6P\xf5\xbf\xb3\x81e\xca! \x1e@\x98\xb7]\xbe\xd0Z\x10@'
p26
tp27
bsS'message'
p28
S'ABNORMAL_TERMINATION_IN_LNSRCH'
p29
sS'jac'
p30
g19
(g20
(I0
tp31
g22
tp32
Rp33
(I1
(I3
tp34
g12
I00
S'dT\x81o\x08\xcc/?\xf3\xf8\xdf,\xe9\xba\x14?\x05\x8f\x1e0\x82\xde%\xbf'
p35
tp36
bsS'nit'
p37
I18
stp38
Rp39
.