ccopy_reg
_reconstructor
p0
(cscipy.optimize.optimize
OptimizeResult
p1
c__builtin__
dict
p2
(dp3
S'status'
p4
I4
sS'success'
p5
I00
sS'nfev'
p6
I66
sS'fun'
p7
cnumpy.core.multiarray
scalar
p8
(cnumpy
dtype
p9
(S'f8'
p10
I0
I1
tp11
Rp12
(I3
S'<'
p13
NNNI-1
I-1
I0
tp14
bS"\xee\xb7\xe3'\xa1\xe7(@"
p15
tp16
Rp17
sS'x'
p18
cnumpy.core.multiarray
_reconstruct
p19
(cnumpy
ndarray
p20
(I0
tp21
S'b'
p22
tp23
Rp24
(I1
(I3
tp25
g12
I00
S'\xc0\x84\x01re\x9b\xa5\xbf5N\xd5\x04\r\x11\x16@\xdd\xdcA\xf2\xc7\xe5\x14@'
p26
tp27
bsS'message'
p28
S'Linear search failed'
p29
sS'jac'
p30
g19
(g20
(I0
tp31
g22
tp32
Rp33
(I1
(I3
tp34
g12
I00
S'lt\x10\'E\x0f2\xc0\x909\x93\xb8_\x07"\xc0\xd7Z\x16\xbc\xeb\x072@'
p35
tp36
bsS'nit'
p37
I0
stp38
Rp39
.