ccopy_reg
_reconstructor
p0
(cscipy.optimize.optimize
OptimizeResult
p1
c__builtin__
dict
p2
(dp3
S'status'
p4
I0
sS'nhev'
p5
I13
sS'success'
p6
I01
sS'jac'
p7
cnumpy.core.multiarray
_reconstruct
p8
(cnumpy
ndarray
p9
(I0
tp10
S'b'
p11
tp12
Rp13
(I1
(I3
tp14
cnumpy
dtype
p15
(S'f8'
p16
I0
I1
tp17
Rp18
(I3
S'<'
p19
NNNI-1
I-1
I0
tp20
bI00
S'\xe1,\xc2\xac\xca\xd2\x10?4\x95?\x92W\xe3\xb5\xbe\x00\xfb\xee>!\x05\x12\xbf'
p21
tp22
bsS'nfev'
p23
I17
sS'fun'
p24
cnumpy.core.multiarray
scalar
p25
(g18
S'\xfe@U\xd3\x89n\xdb?'
p26
tp27
Rp28
sS'x'
p29
g8
(g9
(I0
tp30
g11
tp31
Rp32
(I1
(I3
tp33
g18
I00
S'v\xe5\xffO\xbcO\xf5\xbf\x10\x17\r\xca\x8b. @\xddB\xe7#ny\x11@'
p34
tp35
bsS'message'
p36
S'Optimization terminated successfully.'
p37
sS'hess'
p38
g8
(g9
(I0
tp39
g11
tp40
Rp41
(I1
(I3
I3
tp42
g18
I00
S'\xb4\xd9\xfe\x06\x1c~T@_y`\xdb+TB@+\x93:\x9b\x13TR\xc0_y`\xdb+TB@\xca<\xe3\xf8\x8cx0@6/v@\xc9x@\xc0+\x93:\x9b\x13TR\xc06/v@\xc9x@\xc0\x83B]\xd1OxP@'
p43
tp44
bsS'njev'
p45
I14
sS'nit'
p46
I16
stp47
Rp48
.