ccopy_reg
_reconstructor
p0
(cscipy.optimize.optimize
OptimizeResult
p1
c__builtin__
dict
p2
(dp3
S'status'
p4
I0
sS'success'
p5
I01
sS'jac'
p6
cnumpy.core.multiarray
_reconstruct
p7
(cnumpy
ndarray
p8
(I0
tp9
S'b'
p10
tp11
Rp12
(I1
(I3
tp13
cnumpy
dtype
p14
(S'f8'
p15
I0
I1
tp16
Rp17
(I3
S'<'
p18
NNNI-1
I-1
I0
tp19
bI00
S'\xc2\x9a\xf7\xd0Q\xb2\x19\xbf\x16\x0c\x00\x99\xc5V\x04\xbflDe\xd1\xbdL\xf8>'
p20
tp21
bsS'nfev'
p22
I27
sS'fun'
p23
F0.4286223365841497
sS'x'
p24
g7
(g8
(I0
tp25
g10
tp26
Rp27
(I1
(I3
tp28
g17
I00
S'O\xe9\xdc\xa1YQ\xf5\xbf\xd2\xe4+;\x84\xf3\x1b@rX\xef\x8ed\x88\x0e@'
p29
tp30
bsS'message'
p31
S'Optimization terminated successfully.'
p32
sS'nhev'
p33
I16
sS'njev'
p34
I42
stp35
Rp36
.