ccopy_reg
_reconstructor
p0
(cscipy.optimize.optimize
OptimizeResult
p1
c__builtin__
dict
p2
(dp3
S'status'
p4
I2
sS'nhev'
p5
I23
sS'success'
p6
I00
sS'jac'
p7
cnumpy.core.multiarray
_reconstruct
p8
(cnumpy
ndarray
p9
(I0
tp10
S'b'
p11
tp12
Rp13
(I1
(I3
tp14
cnumpy
dtype
p15
(S'f8'
p16
I0
I1
tp17
Rp18
(I3
S'<'
p19
NNNI-1
I-1
I0
tp20
bI00
S'S\x8c\x16\xca\xbcB ?\x90qtv\xc3w\x9d\xber\xf13\xf2\xe3\x06\x01\xbf'
p21
tp22
bsS'nfev'
p23
I48
sS'fun'
p24
cnumpy.core.multiarray
scalar
p25
(g18
S'&\x1f\x93\xed\x88n\xdb?'
p26
tp27
Rp28
sS'x'
p29
g8
(g9
(I0
tp30
g11
tp31
Rp32
(I1
(I3
tp33
g18
I00
S'W@g*\x1bP\xf5\xbf\xf9mM\xef\xcb^\x1e@\x86\x19T\xfd-z\x10@'
p34
tp35
bsS'message'
p36
S'A bad approximation caused failure to predict improvement.'
p37
sS'hess'
p38
g8
(g9
(I0
tp39
g11
tp40
Rp41
(I1
(I3
I3
tp42
g18
I00
S'_\xdfsm|~T@\x97\x14f\xb8+TB@\xf8!\xba\xdf\x16TR\xc0\x97\x14f\xb8+TB@\xa2\x0e\xba\xca\xf8w0@\x84Y\xaf\x00&x@\xc0\xf8!\xba\xdf\x16TR\xc0\x84Y\xaf\x00&x@\xc0/b\xc5\x117xP@'
p43
tp44
bsS'njev'
p45
I23
sS'nit'
p46
I46
stp47
Rp48
.