ccopy_reg
_reconstructor
p0
(cscipy.optimize.optimize
OptimizeResult
p1
c__builtin__
dict
p2
(dp3
S'status'
p4
I2
sS'success'
p5
I00
sS'jac'
p6
cnumpy.core.multiarray
_reconstruct
p7
(cnumpy
ndarray
p8
(I0
tp9
S'b'
p10
tp11
Rp12
(I1
(I3
tp13
cnumpy
dtype
p14
(S'f8'
p15
I0
I1
tp16
Rp17
(I3
S'<'
p18
NNNI-1
I-1
I0
tp19
bI00
S"o\x18h\x1c#\\\xab?\xa5d'\xd1\xb04\xc4?\xf5\x1b\xb4c\xbb\x06\xd4\xbf"
p20
tp21
bsS'nfev'
p22
I56
sS'fun'
p23
F0.47455984539557
sS'x'
p24
g7
(g8
(I0
tp25
g10
tp26
Rp27
(I1
(I3
tp28
g17
I00
S'zx\xefB\x98\xef\xfa\xbf\r\x12\xfc\x9d\x1c\xf2\x15@f"\xbb\xc9\xe7-\x05@'
p29
tp30
bsS'message'
p31
S'Desired error not necessarily achieved due to precision loss.'
p32
sS'nhev'
p33
I15
sS'njev'
p34
I61
stp35
Rp36
.