ccopy_reg
_reconstructor
p0
(cscipy.optimize.optimize
OptimizeResult
p1
c__builtin__
dict
p2
(dp3
S'status'
p4
I3
sS'success'
p5
I00
sS'nfev'
p6
I100
sS'fun'
p7
cnumpy.core.multiarray
scalar
p8
(cnumpy
dtype
p9
(S'f8'
p10
I0
I1
tp11
Rp12
(I3
S'<'
p13
NNNI-1
I-1
I0
tp14
bS'\xab\x98\x0c\xfc\xddy\xdb?'
p15
tp16
Rp17
sS'x'
p18
cnumpy.core.multiarray
_reconstruct
p19
(cnumpy
ndarray
p20
(I0
tp21
S'b'
p22
tp23
Rp24
(I1
(I3
tp25
g12
I00
S'\x9c\xa2\xb3$\xb7\xd1\xf4\xbf?2\xc8v]\x0f\x1b@\xfa\x043\xfb\x1a\xf3\r@'
p26
tp27
bsS'message'
p28
S'Max. number of function evaluations reach'
p29
sS'jac'
p30
g19
(g20
(I0
tp31
g22
tp32
Rp33
(I1
(I3
tp34
g12
I00
S'k\xc0\x808\xc6\xd2\xd1\xbf\x08\x94V\xfd\xbd\xc4\xc0\xbf?H\xd3\x07\xed\xc3\xd0?'
p35
tp36
bsS'nit'
p37
I10
stp38
Rp39
.