ccopy_reg
_reconstructor
p0
(cscipy.optimize.optimize
OptimizeResult
p1
c__builtin__
dict
p2
(dp3
S'status'
p4
I0
sS'nhev'
p5
I20
sS'success'
p6
I01
sS'jac'
p7
cnumpy.core.multiarray
_reconstruct
p8
(cnumpy
ndarray
p9
(I0
tp10
S'b'
p11
tp12
Rp13
(I1
(I3
tp14
cnumpy
dtype
p15
(S'f8'
p16
I0
I1
tp17
Rp18
(I3
S'<'
p19
NNNI-1
I-1
I0
tp20
bI00
S'Ry\x18rC&\xed\xbeX.\x1ez\x86\xe6\xef>\xcdm1\xd2\xda\xe4\x01\xbf'
p21
tp22
bsS'nfev'
p23
I30
sS'fun'
p24
cnumpy.core.multiarray
scalar
p25
(g18
S'\xe5ni\r\x8an\xdb?'
p26
tp27
Rp28
sS'x'
p29
g8
(g9
(I0
tp30
g11
tp31
Rp32
(I1
(I3
tp33
g18
I00
S'\x03\xad\xe4e\rP\xf5\xbf~T\xaf\xcbk\x84 @\x99\xdb\xd1\x817\xcf\x11@'
p34
tp35
bsS'message'
p36
S'Optimization terminated successfully.'
p37
sS'hess'
p38
g8
(g9
(I0
tp39
g11
tp40
Rp41
(I1
(I3
I3
tp42
g18
I00
S"\xf0{\x0e|'~T@*n\x07\x1c\x9eSB@\x92\x93)\xca\xe6TR\xc0*n\x07\x1c\x9eSB@\xbe\xaeNS\x1cx0@\xd8\xd7\xcfW\x1ex@\xc0\x92\x93)\xca\xe6TR\xc0\xd8\xd7\xcfW\x1ex@\xc0\x04\x82t1\x9dxP@"
p43
tp44
bsS'njev'
p45
I21
sS'nit'
p46
I29
stp47
Rp48
.