ccopy_reg
_reconstructor
p0
(cscipy.optimize.optimize
OptimizeResult
p1
c__builtin__
dict
p2
(dp3
S'status'
p4
I2
sS'success'
p5
I00
sS'jac'
p6
cnumpy.core.multiarray
_reconstruct
p7
(cnumpy
ndarray
p8
(I0
tp9
S'b'
p10
tp11
Rp12
(I1
(I3
tp13
cnumpy
dtype
p14
(S'f8'
p15
I0
I1
tp16
Rp17
(I3
S'<'
p18
NNNI-1
I-1
I0
tp19
bI00
S'0\x9aR\xdc\x15B\x11\xbf e\x03\x0ch\xf5\xcb>\xa0\xb5\x0c\x17g\x16\xfa>'
p20
tp21
bsS'nfev'
p22
I40
sS'fun'
p23
cnumpy.core.multiarray
scalar
p24
(g17
S'\xcep\xe3\x19\x8an\xdb?'
p25
tp26
Rp27
sS'x'
p28
g7
(g8
(I0
tp29
g10
tp30
Rp31
(I1
(I3
tp32
g17
I00
S'q\x05\xff7\xebQ\xf5\xbf\x96^r\x8c\x88\xd5"@\x1c\nr\x15\xcf\x1f\x14@'
p33
tp34
bsS'message'
p35
S'Desired error not necessarily achieved due to precision loss.'
p36
sS'nhev'
p37
I11
sS'njev'
p38
I38
stp39
Rp40
.