ccopy_reg
_reconstructor
p0
(cscipy.optimize.optimize
OptimizeResult
p1
c__builtin__
dict
p2
(dp3
S'status'
p4
I2
sS'success'
p5
I00
sS'nfev'
p6
I109
sS'fun'
p7
cnumpy.core.multiarray
scalar
p8
(cnumpy
dtype
p9
(S'f8'
p10
I0
I1
tp11
Rp12
(I3
S'<'
p13
NNNI-1
I-1
I0
tp14
bS'R\x90^bV\x1c#@'
p15
tp16
Rp17
sS'x'
p18
cnumpy.core.multiarray
_reconstruct
p19
(cnumpy
ndarray
p20
(I0
tp21
S'b'
p22
tp23
Rp24
(I1
(I3
tp25
g12
I00
S'\x90\xca\xac\xeb\x9f\xe2\xf8\xbf\xa7\x9a\xf2\xec\x02\xf2"@\xb8\xa1\xd1\xc8\xc6\x06\x16@'
p26
tp27
bsS'message'
p28
S'ABNORMAL_TERMINATION_IN_LNSRCH'
p29
sS'jac'
p30
g19
(g20
(I0
tp31
g22
tp32
Rp33
(I1
(I3
tp34
g12
I00
S'\xa5\x0f]\xd0R\x8d3\xc0\x93\xe8\xc3\xd6\x82l~@\x8d\x88w+\x95X2@'
p35
tp36
bsS'nit'
p37
I3
stp38
Rp39
.