ccopy_reg
_reconstructor
p0
(cscipy.optimize.optimize
OptimizeResult
p1
c__builtin__
dict
p2
(dp3
S'status'
p4
I2
sS'nhev'
p5
I12
sS'success'
p6
I00
sS'jac'
p7
cnumpy.core.multiarray
_reconstruct
p8
(cnumpy
ndarray
p9
(I0
tp10
S'b'
p11
tp12
Rp13
(I1
(I3
tp14
cnumpy
dtype
p15
(S'f8'
p16
I0
I1
tp17
Rp18
(I3
S'<'
p19
NNNI-1
I-1
I0
tp20
bI00
S')T>\x05\x06\x83\x10\xbf\x84?Bl<B\r?\x05\xc9\xe8\xc7\xef\xdf\x17\xbf'
p21
tp22
bsS'nfev'
p23
I36
sS'fun'
p24
cnumpy.core.multiarray
scalar
p25
(g18
S'\xafy0)\x88n\xdb?'
p26
tp27
Rp28
sS'x'
p29
g8
(g9
(I0
tp30
g11
tp31
Rp32
(I1
(I3
tp33
g18
I00
S'\xd07]\xedPR\xf5\xbfl\xe8`L\x91\xf8 @\xea\xf7kb\xbbB\x12@'
p34
tp35
bsS'message'
p36
S'A bad approximation caused failure to predict improvement.'
p37
sS'hess'
p38
g8
(g9
(I0
tp39
g11
tp40
Rp41
(I1
(I3
I3
tp42
g18
I00
S'\xac\xcbW\x0cE~T@\x0e\xdfC\xd1\xe6SB@\xd8\x92\x13\xc9\xf0SR\xc0\x0e\xdfC\xd1\xe6SB@\x1d\xa8\xde\x11Ww0@\xc8I\xfelew@\xc0\xd8\x92\x13\xc9\xf0SR\xc0\xc8I\xfelew@\xc0\x04%\x08T\xb3wP@'
p43
tp44
bsS'njev'
p45
I12
sS'nit'
p46
I34
stp47
Rp48
.