ccopy_reg
_reconstructor
p0
(cscipy.optimize.optimize
OptimizeResult
p1
c__builtin__
dict
p2
(dp3
S'status'
p4
I2
sS'success'
p5
I00
sS'jac'
p6
cnumpy.core.multiarray
_reconstruct
p7
(cnumpy
ndarray
p8
(I0
tp9
S'b'
p10
tp11
Rp12
(I1
(I3
tp13
cnumpy
dtype
p14
(S'f8'
p15
I0
I1
tp16
Rp17
(I3
S'<'
p18
NNNI-1
I-1
I0
tp19
bI00
S'\x1dT\xe1\xb6nC$\xbf g\x9eM\xa3\xbc\xd1>\xc6\xc9\x0f+\xd9.\xe2>'
p20
tp21
bsS'nfev'
p22
I35
sS'fun'
p23
F0.4286216820597062
sS'x'
p24
g7
(g8
(I0
tp25
g10
tp26
Rp27
(I1
(I3
tp28
g17
I00
S'\x9dS\xd1\x08UQ\xf5\xbf\x9e\xb3H\xc2\xb6\x07\x1d@D\xad\x85\x08\x99\x9c\x0f@'
p29
tp30
bsS'message'
p31
S'Desired error not necessarily achieved due to precision loss.'
p32
sS'njev'
p33
I23
stp34
Rp35
.