ccopy_reg
_reconstructor
p0
(cscipy.optimize.optimize
OptimizeResult
p1
c__builtin__
dict
p2
(dp3
S'nfev'
p4
I963
sS'success'
p5
I01
sS'fun'
p6
cnumpy.core.multiarray
scalar
p7
(cnumpy
dtype
p8
(S'f8'
p9
I0
I1
tp10
Rp11
(I3
S'<'
p12
NNNI-1
I-1
I0
tp13
bS'\x84P+.\xfan\xdb?'
p14
tp15
Rp16
sS'x'
p17
cnumpy.core.multiarray
_reconstruct
p18
(cnumpy
ndarray
p19
(I0
tp20
S'b'
p21
tp22
Rp23
(I1
(I3
tp24
g11
I00
S'\x17\xa0\xde\xcc\xe5`\xf5\xbf\x17Z\xe4:0\xba\x17@\x19\x91\x16\xf9\xc1D\n@'
p25
tp26
bsS'message'
p27
S'Optimization terminated successfully.'
p28
sS'jac'
p29
g18
(g19
(I0
tp30
g21
tp31
Rp32
(I1
(I3
tp33
g11
I00
S'\xe2\xe7\xfa\xb2%\xf5L@\x00\\\x9d\xe7\x8a\r\xf3?\xec\xb9\xb2\x1b\x9bRQ@'
p34
tp35
bsS'nit'
p36
I18
stp37
Rp38
.