ccopy_reg
_reconstructor
p0
(cscipy.optimize.optimize
OptimizeResult
p1
c__builtin__
dict
p2
(dp3
S'status'
p4
I3
sS'nhev'
p5
I1
sS'success'
p6
I00
sS'jac'
p7
cnumpy.core.multiarray
_reconstruct
p8
(cnumpy
ndarray
p9
(I0
tp10
S'b'
p11
tp12
Rp13
(I1
(I3
tp14
cnumpy
dtype
p15
(S'f8'
p16
I0
I1
tp17
Rp18
(I3
S'<'
p19
NNNI-1
I-1
I0
tp20
bI00
S'\xa6r\x15Bz\x18H@\x05Sn6*\x897@\x94\xbb\xa26\x86\x89G\xc0'
p21
tp22
bsS'nfev'
p23
I1
sS'fun'
p24
cnumpy.core.multiarray
scalar
p25
(g18
S'\xa81\xad\xf2dPP@'
p26
tp27
Rp28
sS'x'
p29
g8
(g9
(I0
tp30
g11
tp31
Rp32
(I1
(I3
tp33
g18
I00
S'\xd8vD\x10\xa5\xc8\xdf?\xc6"*\x87/\xd6 @v\x965Baj\x14@'
p34
tp35
bsS'message'
p36
S'A linalg error occurred, such as a non-psd Hessian.'
p37
sS'hess'
p38
g8
(g9
(I0
tp39
g11
tp40
Rp41
(I1
(I3
I3
tp42
g18
I00
S'\xc4\x80]\x8d\xba)V\xc0\xe6i\xb0\x8a\xe3\xe5E\xc0\t&zF&\xe6U@\xe6i\xb0\x8a\xe3\xe5E\xc0\x8b\x88]\x07]\n6\xc0A4/\xf2\xbf\x0bF@\t&zF&\xe6U@A4/\xf2\xbf\x0bF@\xde\x10\x83\xe1\x14\nV\xc0'
p43
tp44
bsS'njev'
p45
I1
sS'nit'
p46
I0
stp47
Rp48
.