ccopy_reg
_reconstructor
p0
(cscipy.optimize.optimize
OptimizeResult
p1
c__builtin__
dict
p2
(dp3
S'status'
p4
I2
sS'success'
p5
I00
sS'jac'
p6
cnumpy.core.multiarray
_reconstruct
p7
(cnumpy
ndarray
p8
(I0
tp9
S'b'
p10
tp11
Rp12
(I1
(I3
tp13
cnumpy
dtype
p14
(S'f8'
p15
I0
I1
tp16
Rp17
(I3
S'<'
p18
NNNI-1
I-1
I0
tp19
bI00
S'v4\xb6\x05@R\xf1\xbf\x1d\x99\xdb\xaaK\x08\xb9\xbf6\x9b\xee>\xbf\t\xc9?'
p20
tp21
bsS'nfev'
p22
I19
sS'fun'
p23
F0.5700233381742448
sS'x'
p24
g7
(g8
(I0
tp25
g10
tp26
Rp27
(I1
(I3
tp28
g17
I00
S'\xa97G8a\xbb\xfd\xbf"\xb8\xc7\xeb\x8fP\x19@\x98\xc9\x14<u\xc4\x06@'
p29
tp30
bsS'message'
p31
S'Desired error not necessarily achieved due to precision loss.'
p32
sS'njev'
p33
I7
stp34
Rp35
.