ccopy_reg
_reconstructor
p0
(cscipy.optimize.optimize
OptimizeResult
p1
c__builtin__
dict
p2
(dp3
S'status'
p4
I2
sS'success'
p5
I00
sS'jac'
p6
cnumpy.core.multiarray
_reconstruct
p7
(cnumpy
ndarray
p8
(I0
tp9
S'b'
p10
tp11
Rp12
(I1
(I3
tp13
cnumpy
dtype
p14
(S'f8'
p15
I0
I1
tp16
Rp17
(I3
S'<'
p18
NNNI-1
I-1
I0
tp19
bI00
S'L\xcb\xa4\xbb\xfa\x04\x1a\xc0\x8aV\x88q\xbb\xb2\x01\xc0/cr\xa90\xb3\x11@'
p20
tp21
bsS'nfev'
p22
I17
sS'fun'
p23
F0.7666402746235171
sS'x'
p24
g7
(g8
(I0
tp25
g10
tp26
Rp27
(I1
(I3
tp28
g17
I00
S'0\x9c\xcdQ\xe5%\xfd\xbfs\x1cDQV\xaf\x1e@m\xdf\xf2\xe7ZO\r@'
p29
tp30
bsS'message'
p31
S'Desired error not necessarily achieved due to precision loss.'
p32
sS'njev'
p33
I5
stp34
Rp35
.