ccopy_reg
_reconstructor
p0
(cscipy.optimize.optimize
OptimizeResult
p1
c__builtin__
dict
p2
(dp3
S'status'
p4
I1
sS'success'
p5
I01
sS'nfev'
p6
I44
sS'fun'
p7
cnumpy.core.multiarray
scalar
p8
(cnumpy
dtype
p9
(S'f8'
p10
I0
I1
tp11
Rp12
(I3
S'<'
p13
NNNI-1
I-1
I0
tp14
bS'\x07\xb3\xab\xb1\xc6\xca\xdc?'
p15
tp16
Rp17
sS'x'
p18
cnumpy.core.multiarray
_reconstruct
p19
(cnumpy
ndarray
p20
(I0
tp21
S'b'
p22
tp23
Rp24
(I1
(I3
tp25
g12
I00
S'\x9a^b2Y\x08\xf9\xbf\xd7\xaa\x0c[.\x1b\x17@\x98\x07\xcem\xba\xa9\x07@'
p26
tp27
bsS'message'
p28
S'Converged (|f_n-f_(n-1)| ~= 0)'
p29
sS'jac'
p30
g19
(g20
(I0
tp31
g22
tp32
Rp33
(I1
(I3
tp34
g12
I00
S'\xad0\x9a\xcb\xed\xe7\xf1\xbf\xcb\xc4\xfe=\xd4\xa9\xd9\xbf\x11\x1f\x90\xe0\x84\xaa\xe9?'
p35
tp36
bsS'nit'
p37
I7
stp38
Rp39
.