ccopy_reg
_reconstructor
p0
(cscipy.optimize.optimize
OptimizeResult
p1
c__builtin__
dict
p2
(dp3
S'nfev'
p4
I1446
sS'success'
p5
I01
sS'fun'
p6
cnumpy.core.multiarray
scalar
p7
(cnumpy
dtype
p8
(S'f8'
p9
I0
I1
tp10
Rp11
(I3
S'<'
p12
NNNI-1
I-1
I0
tp13
bS'\x0c\x1e\xbf!_o\xdb?'
p14
tp15
Rp16
sS'x'
p17
cnumpy.core.multiarray
_reconstruct
p18
(cnumpy
ndarray
p19
(I0
tp20
S'b'
p21
tp22
Rp23
(I1
(I3
tp24
g11
I00
S'x{\x00\x8df$\xf5\xbfT!J\xea\xb0W\x1e@\xd4\xbe\x98\xe1\xba\x83\x10@'
p25
tp26
bsS'message'
p27
S'Optimization terminated successfully.'
p28
sS'jac'
p29
g18
(g19
(I0
tp30
g21
tp31
Rp32
(I1
(I3
tp33
g11
I00
S'\xd7\x8e:\x1ao\xbeR@\xe6\x94\x89H\x81\x89A@\xa0\xeeo\xb8\xe4\xdcC@'
p34
tp35
bsS'nit'
p36
I21
stp37
Rp38
.