ccopy_reg
_reconstructor
p0
(cscipy.optimize.optimize
OptimizeResult
p1
c__builtin__
dict
p2
(dp3
S'status'
p4
I2
sS'success'
p5
I01
sS'nfev'
p6
I36
sS'fun'
p7
cnumpy.core.multiarray
scalar
p8
(cnumpy
dtype
p9
(S'f8'
p10
I0
I1
tp11
Rp12
(I3
S'<'
p13
NNNI-1
I-1
I0
tp14
bS'\xa4\x0e\x1b\xadh\t\xde?'
p15
tp16
Rp17
sS'x'
p18
cnumpy.core.multiarray
_reconstruct
p19
(cnumpy
ndarray
p20
(I0
tp21
S'b'
p22
tp23
Rp24
(I1
(I3
tp25
g12
I00
S'=\xa7\xcd\x16\xe6\x85\xa1\xbf\xd3S+\xbf\xbe6\x1d@V\xd2.\xbf\x06I\x15@'
p26
tp27
bsS'message'
p28
S'Converged (|x_n-x_(n-1)| ~= 0)'
p29
sS'jac'
p30
g19
(g20
(I0
tp31
g22
tp32
Rp33
(I1
(I3
tp34
g12
I00
S'\x84\xb3\xb04\x94@\xaa\xbf%\xbe\x1e\xa1C\x01\xa0\xbf\xe5\xa5\x9a\xadj\xfc\xaf?'
p35
tp36
bsS'nit'
p37
I4
stp38
Rp39
.