ccopy_reg
_reconstructor
p0
(cscipy.optimize.optimize
OptimizeResult
p1
c__builtin__
dict
p2
(dp3
S'status'
p4
I0
sS'nfev'
p5
I170
sS'success'
p6
I01
sS'fun'
p7
cnumpy.core.multiarray
scalar
p8
(cnumpy
dtype
p9
(S'f8'
p10
I0
I1
tp11
Rp12
(I3
S'<'
p13
NNNI-1
I-1
I0
tp14
bS'\x93`Y\x9a\x88n\xdb?'
p15
tp16
Rp17
sS'x'
p18
cnumpy.core.multiarray
_reconstruct
p19
(cnumpy
ndarray
p20
(I0
tp21
S'b'
p22
tp23
Rp24
(I1
(I3
tp25
g12
I00
S'f/\x8b\xc5\x91N\xf5\xbfn\x8d\xce\xa1o\x18"@\xca\x13\x04+\xacc\x13@'
p26
tp27
bsS'message'
p28
S'Optimization terminated successfully.'
p29
sS'nit'
p30
I84
stp31
Rp32
.