ccopy_reg
_reconstructor
p0
(cscipy.optimize.optimize
OptimizeResult
p1
c__builtin__
dict
p2
(dp3
S'nfev'
p4
I976
sS'success'
p5
I01
sS'fun'
p6
cnumpy.core.multiarray
scalar
p7
(cnumpy
dtype
p8
(S'f8'
p9
I0
I1
tp10
Rp11
(I3
S'<'
p12
NNNI-1
I-1
I0
tp13
bS'\xbb#-\x9c5p\xdb?'
p14
tp15
Rp16
sS'x'
p17
cnumpy.core.multiarray
_reconstruct
p18
(cnumpy
ndarray
p19
(I0
tp20
S'b'
p21
tp22
Rp23
(I1
(I3
tp24
g11
I00
S'\xa7I\xd7a.\x1c\xf5\xbfpW\xa7\xc2\x99\xae\x1b@\xb9,\xa5\x12\x01d\x0e@'
p25
tp26
bsS'message'
p27
S'Optimization terminated successfully.'
p28
sS'jac'
p29
g18
(g19
(I0
tp30
g21
tp31
Rp32
(I1
(I3
tp33
g11
I00
S'\x80w\n<\x0eK\xe8\xbf\x00\xb6\x1c\xd9z\x1b\xf3\xbf\x00\xec\xaa\x86,\xe2\xe4?'
p34
tp35
bsS'nit'
p36
I19
stp37
Rp38
.