ccopy_reg
_reconstructor
p0
(cscipy.optimize.optimize
OptimizeResult
p1
c__builtin__
dict
p2
(dp3
S'status'
p4
I4
sS'success'
p5
I00
sS'nfev'
p6
I66
sS'fun'
p7
cnumpy.core.multiarray
scalar
p8
(cnumpy
dtype
p9
(S'f8'
p10
I0
I1
tp11
Rp12
(I3
S'<'
p13
NNNI-1
I-1
I0
tp14
bS'\xab*\xdc\xd0\x98\xa3;@'
p15
tp16
Rp17
sS'x'
p18
cnumpy.core.multiarray
_reconstruct
p19
(cnumpy
ndarray
p20
(I0
tp21
S'b'
p22
tp23
Rp24
(I1
(I3
tp25
g12
I00
S'\x0f\x10\x9a\xc9\n\xcd\x08\xc0Ex\xbc\xaf\xd9m\x1b@4\xc5&\xff\xd1\x84\x13@'
p26
tp27
bsS'message'
p28
S'Linear search failed'
p29
sS'jac'
p30
g19
(g20
(I0
tp31
g22
tp32
Rp33
(I1
(I3
tp34
g12
I00
S'\x00N =\xdbG\xf5\xbf\xe5\xc4\x1d\x99F\xcf\xe3\xbf\xfc\xcf8Zx\xd0\xf3?'
p35
tp36
bsS'nit'
p37
I0
stp38
Rp39
.