ccopy_reg
_reconstructor
p0
(cscipy.optimize.optimize
OptimizeResult
p1
c__builtin__
dict
p2
(dp3
S'status'
p4
I2
sS'success'
p5
I01
sS'nfev'
p6
I62
sS'fun'
p7
cnumpy.core.multiarray
scalar
p8
(cnumpy
dtype
p9
(S'f8'
p10
I0
I1
tp11
Rp12
(I3
S'<'
p13
NNNI-1
I-1
I0
tp14
bS'\xf1\xbd\xa7)\xf5v\xdb?'
p15
tp16
Rp17
sS'x'
p18
cnumpy.core.multiarray
_reconstruct
p19
(cnumpy
ndarray
p20
(I0
tp21
S'b'
p22
tp23
Rp24
(I1
(I3
tp25
g12
I00
S'\xe7\xa4\x80]\xfc\x1c\xf6\xbf\xfb\x92\xf1\xe2\xf6\t\x19@ffk\xbc\xba,\x0b@'
p26
tp27
bsS'message'
p28
S'Converged (|x_n-x_(n-1)| ~= 0)'
p29
sS'jac'
p30
g19
(g20
(I0
tp31
g22
tp32
Rp33
(I1
(I3
tp34
g12
I00
S'L\x9e6\xcf\xe1h\x91\xbf\xbb\xf0\xdc\r\xa59`?\xa3\xa0\xff\xc2\x1a\xe1n\xbf'
p35
tp36
bsS'nit'
p37
I9
stp38
Rp39
.