ccopy_reg
_reconstructor
p0
(cscipy.optimize.optimize
OptimizeResult
p1
c__builtin__
dict
p2
(dp3
S'status'
p4
I0
sS'success'
p5
I01
sS'jac'
p6
cnumpy.core.multiarray
_reconstruct
p7
(cnumpy
ndarray
p8
(I0
tp9
S'b'
p10
tp11
Rp12
(I1
(I3
tp13
cnumpy
dtype
p14
(S'f8'
p15
I0
I1
tp16
Rp17
(I3
S'<'
p18
NNNI-1
I-1
I0
tp19
bI00
S'\xa6\x01\xb1\xd6Ds0\xbf\x18\xb6\xaf!5\xed\x10\xbf\xfe\xd5\xa5\xd8\x01\xd4\x1c?'
p20
tp21
bsS'nfev'
p22
I37
sS'fun'
p23
F0.42862185028017097
sS'x'
p24
g7
(g8
(I0
tp25
g10
tp26
Rp27
(I1
(I3
tp28
g17
I00
S't\xe53 \xb7Q\xf5\xbf.\xd0\x17\xfaA%\x1e@0\t\x80 \xf7\\\x10@'
p29
tp30
bsS'message'
p31
S'Optimization terminated successfully.'
p32
sS'nhev'
p33
I25
sS'njev'
p34
I61
stp35
Rp36
.