ccopy_reg
_reconstructor
p0
(cscipy.optimize.optimize
OptimizeResult
p1
c__builtin__
dict
p2
(dp3
S'status'
p4
I3
sS'nhev'
p5
I1
sS'success'
p6
I00
sS'jac'
p7
cnumpy.core.multiarray
_reconstruct
p8
(cnumpy
ndarray
p9
(I0
tp10
S'b'
p11
tp12
Rp13
(I1
(I3
tp14
cnumpy
dtype
p15
(S'f8'
p16
I0
I1
tp17
Rp18
(I3
S'<'
p19
NNNI-1
I-1
I0
tp20
bI00
S'.R\xa1\xd5\x8a+C@\x1bG*:\xb3\xd8+@\x87^\x01\xfcC\xd7;\xc0'
p21
tp22
bsS'nfev'
p23
I1
sS'fun'
p24
cnumpy.core.multiarray
scalar
p25
(g18
S'\x10\xcd\x86\xa8\xb0OQ@'
p26
tp27
Rp28
sS'x'
p29
g8
(g9
(I0
tp30
g11
tp31
Rp32
(I1
(I3
tp33
g18
I00
S'\xb4\xf9\xbb\xe2\xc1\xa3\xe0\xbf\xef\x97.\xf44>\x1b@\x0cs\xa68iv\x08@'
p34
tp35
bsS'message'
p36
S'A linalg error occurred, such as a non-psd Hessian.'
p37
sS'hess'
p38
g8
(g9
(I0
tp39
g11
tp40
Rp41
(I1
(I3
I3
tp42
g18
I00
S'/_3\x8b\x13zT\xc0\xd22\xc4#\xef\xd9?\xc0\\V\'\x0bC\xdaO@\xd22\xc4#\xef\xd9?\xc02\xa3\x90"\x86k0\xc0q\xc5\x81\xe1\xb2j@@\\V\'\x0bC\xdaO@q\xc5\x81\xe1\xb2j@@@%\xf9\xa5\xc5kP\xc0'
p43
tp44
bsS'njev'
p45
I1
sS'nit'
p46
I0
stp47
Rp48
.