ccopy_reg
_reconstructor
p0
(cscipy.optimize.optimize
OptimizeResult
p1
c__builtin__
dict
p2
(dp3
S'status'
p4
I0
sS'nhev'
p5
I13
sS'success'
p6
I01
sS'jac'
p7
cnumpy.core.multiarray
_reconstruct
p8
(cnumpy
ndarray
p9
(I0
tp10
S'b'
p11
tp12
Rp13
(I1
(I3
tp14
cnumpy
dtype
p15
(S'f8'
p16
I0
I1
tp17
Rp18
(I3
S'<'
p19
NNNI-1
I-1
I0
tp20
bI00
S'\x00\x11bJys\r?J\xba\xb6n\xa4\xeb\x06?\x0b>GKc\xd2\x04\xbf'
p21
tp22
bsS'nfev'
p23
I17
sS'fun'
p24
cnumpy.core.multiarray
scalar
p25
(g18
S',jV\xd1\x92n\xdb?'
p26
tp27
Rp28
sS'x'
p29
g8
(g9
(I0
tp30
g11
tp31
Rp32
(I1
(I3
tp33
g18
I00
S'\xd6\xd1 -]Q\xf5\xbf\xa7\x98?x\xa5\xd8\x18@\x88\xf5\xa4\x95\x86m\x0b@'
p34
tp35
bsS'message'
p36
S'Optimization terminated successfully.'
p37
sS'hess'
p38
g8
(g9
(I0
tp39
g11
tp40
Rp41
(I1
(I3
I3
tp42
g18
I00
S'J\xe1k\xc3\x02~T@JD\xe8\xec|SB@\xce\x91|\xca\x82SR\xc0JD\xe8\xec|SB@\x94$\x87\xf2#w0@\xa1[QSmw@\xc0\xce\x91|\xca\x82SR\xc0\xa1[QSmw@\xc0\xa2\n\xc0 \xa9wP@'
p43
tp44
bsS'njev'
p45
I14
sS'nit'
p46
I16
stp47
Rp48
.