ccopy_reg
_reconstructor
p0
(cscipy.optimize.optimize
OptimizeResult
p1
c__builtin__
dict
p2
(dp3
S'status'
p4
I2
sS'success'
p5
I00
sS'jac'
p6
cnumpy.core.multiarray
_reconstruct
p7
(cnumpy
ndarray
p8
(I0
tp9
S'b'
p10
tp11
Rp12
(I1
(I3
tp13
cnumpy
dtype
p14
(S'f8'
p15
I0
I1
tp16
Rp17
(I3
S'<'
p18
NNNI-1
I-1
I0
tp19
bI00
S'<\\\xa0\xe3u1\x16\xbfp\x86\xd8m:\x1d\x05\xbf\x1bdq}v\xfb\x11?'
p20
tp21
bsS'nfev'
p22
I33
sS'fun'
p23
F0.4286235013520214
sS'x'
p24
g7
(g8
(I0
tp25
g10
tp26
Rp27
(I1
(I3
tp28
g17
I00
S's\xe7\xa0\xee\x83O\xf5\xbf\xd5\xe0\x96\x9f\x9fU\x19@(\x03\xd9\xb1\x87\xeb\x0b@'
p29
tp30
bsS'message'
p31
S'Desired error not necessarily achieved due to precision loss.'
p32
sS'nhev'
p33
I10
sS'njev'
p34
I32
stp35
Rp36
.