ccopy_reg
_reconstructor
p0
(cscipy.optimize.optimize
OptimizeResult
p1
c__builtin__
dict
p2
(dp3
S'status'
p4
I0
sS'success'
p5
I01
sS'jac'
p6
cnumpy.core.multiarray
_reconstruct
p7
(cnumpy
ndarray
p8
(I0
tp9
S'b'
p10
tp11
Rp12
(I1
(I3
tp13
cnumpy
dtype
p14
(S'f8'
p15
I0
I1
tp16
Rp17
(I3
S'<'
p18
NNNI-1
I-1
I0
tp19
bI00
S'{\x1e\xd60N\x0fP\xbf1u\x8a\x9cA\xe8;\xbfR\xbf\x82\xce\xba\x81L?'
p20
tp21
bsS'nfev'
p22
I227
sS'fun'
p23
F0.4286238372143739
sS'x'
p24
g7
(g8
(I0
tp25
g10
tp26
Rp27
(I1
(I3
tp28
g17
I00
S'\x01O\xc7\xa7!T\xf5\xbf\x9e\xc6\x01?\xf0)\x19@)\xe6d\x8fF\xbd\x0b@'
p29
tp30
bsS'message'
p31
S'Optimization terminated successfully.'
p32
sS'nhev'
p33
I222
sS'njev'
p34
I448
stp35
Rp36
.