ccopy_reg
_reconstructor
p0
(cscipy.optimize.optimize
OptimizeResult
p1
c__builtin__
dict
p2
(dp3
S'status'
p4
I2
sS'success'
p5
I00
sS'jac'
p6
cnumpy.core.multiarray
_reconstruct
p7
(cnumpy
ndarray
p8
(I0
tp9
S'b'
p10
tp11
Rp12
(I1
(I3
tp13
cnumpy
dtype
p14
(S'f8'
p15
I0
I1
tp16
Rp17
(I3
S'<'
p18
NNNI-1
I-1
I0
tp19
bI00
S'2\n/:\xf7[r\xbf\x11\xc3\xbe\xc8\x9c\xf8\\\xbf\x8a\xad_\xcb2\xc7m?'
p20
tp21
bsS'nfev'
p22
I75
sS'fun'
p23
F0.42862178035706017
sS'x'
p24
g7
(g8
(I0
tp25
g10
tp26
Rp27
(I1
(I3
tp28
g17
I00
S'?\xed9\x81\xc0S\xf5\xbf\x7fr\xfd\r\x94\x08!@\xe2\x0e\xa9{fR\x12@'
p29
tp30
bsS'message'
p31
S'Desired error not necessarily achieved due to precision loss.'
p32
sS'nhev'
p33
I30
sS'njev'
p34
I94
stp35
Rp36
.