ccopy_reg
_reconstructor
p0
(cscipy.optimize.optimize
OptimizeResult
p1
c__builtin__
dict
p2
(dp3
S'status'
p4
I4
sS'success'
p5
I00
sS'nfev'
p6
I49
sS'fun'
p7
cnumpy.core.multiarray
scalar
p8
(cnumpy
dtype
p9
(S'f8'
p10
I0
I1
tp11
Rp12
(I3
S'<'
p13
NNNI-1
I-1
I0
tp14
bS'L\n)\xa9\x1f\xda\xdc?'
p15
tp16
Rp17
sS'x'
p18
cnumpy.core.multiarray
_reconstruct
p19
(cnumpy
ndarray
p20
(I0
tp21
S'b'
p22
tp23
Rp24
(I1
(I3
tp25
g12
I00
S'\x1f\xa2xmf\xb0\xe8\xbf\xbaN\x1d\xc9\x06\xbd\x1b@\t\xa9\xf7\xed\x1c\x8c\x11@'
p26
tp27
bsS'message'
p28
S'Linear search failed'
p29
sS'jac'
p30
g19
(g20
(I0
tp31
g22
tp32
Rp33
(I1
(I3
tp34
g12
I00
S"\xfe0\xb7\x8e\x98\xfc\xaa?O\x9c\xaa\x0f'gt?b\xb8\xfcm\x84\xd2\x83\xbf"
p35
tp36
bsS'nit'
p37
I4
stp38
Rp39
.