ccopy_reg
_reconstructor
p0
(cscipy.optimize.optimize
OptimizeResult
p1
c__builtin__
dict
p2
(dp3
S'status'
p4
I0
sS'success'
p5
I01
sS'jac'
p6
cnumpy.core.multiarray
_reconstruct
p7
(cnumpy
ndarray
p8
(I0
tp9
S'b'
p10
tp11
Rp12
(I1
(I3
tp13
cnumpy
dtype
p14
(S'f8'
p15
I0
I1
tp16
Rp17
(I3
S'<'
p18
NNNI-1
I-1
I0
tp19
bI00
S'\xcd\xb3&hO\x13\x10?+\xdf+ss\xbf\x12\xbfj\x97\x97\xc2\xfa\xa1$?'
p20
tp21
bsS'nfev'
p22
I21
sS'fun'
p23
cnumpy.core.multiarray
scalar
p24
(g17
S'dj\x8b\xdd\x8cn\xdb?'
p25
tp26
Rp27
sS'x'
p28
g7
(g8
(I0
tp29
g10
tp30
Rp31
(I1
(I3
tp32
g17
I00
S'\x19\xd9\xf2\xa5\x1cP\xf5\xbfx\xc07\x81|>\x1c@%\xb2\x17|\r\xd4\x0e@'
p33
tp34
bsS'message'
p35
S'Optimization terminated successfully.'
p36
sS'nhev'
p37
I5
sS'njev'
p38
I21
stp39
Rp40
.