ccopy_reg
_reconstructor
p0
(cscipy.optimize.optimize
OptimizeResult
p1
c__builtin__
dict
p2
(dp3
S'status'
p4
I0
sS'nhev'
p5
I21
sS'success'
p6
I01
sS'jac'
p7
cnumpy.core.multiarray
_reconstruct
p8
(cnumpy
ndarray
p9
(I0
tp10
S'b'
p11
tp12
Rp13
(I1
(I3
tp14
cnumpy
dtype
p15
(S'f8'
p16
I0
I1
tp17
Rp18
(I3
S'<'
p19
NNNI-1
I-1
I0
tp20
bI00
S'Ls\x1f\x92\xcd\xe5\xf1>\x89\x9a\x98\xfbP\xcb\xf7\xbepzJ/\xd4\xa0\xb0\xbe'
p21
tp22
bsS'nfev'
p23
I26
sS'fun'
p24
cnumpy.core.multiarray
scalar
p25
(g18
S'M\xd4\xb55\x89n\xdb?'
p26
tp27
Rp28
sS'x'
p29
g8
(g9
(I0
tp30
g11
tp31
Rp32
(I1
(I3
tp33
g18
I00
S'Y6/&\xdbO\xf5\xbf\x930\x84\xa8u\x89\x1f@\xa6\x12\xa9\xc6\x94\x0f\x11@'
p34
tp35
bsS'message'
p36
S'Optimization terminated successfully.'
p37
sS'hess'
p38
g8
(g9
(I0
tp39
g11
tp40
Rp41
(I1
(I3
I3
tp42
g18
I00
S'I\x0550\xa8}T@H\x98V\xd1\xcdSB@u\xe6\x07\n\x16TR\xc0H\x98V\xd1\xcdSB@g\xa4\x15\xecax0@z\xecfmAx@\xc0u\xe6\x07\n\x16TR\xc0z\xecfmAx@\xc0\xcb\x8c*%exP@'
p43
tp44
bsS'njev'
p45
I22
sS'nit'
p46
I25
stp47
Rp48
.