ccopy_reg
_reconstructor
p0
(cscipy.optimize.optimize
OptimizeResult
p1
c__builtin__
dict
p2
(dp3
S'status'
p4
I2
sS'nhev'
p5
I15
sS'success'
p6
I00
sS'jac'
p7
cnumpy.core.multiarray
_reconstruct
p8
(cnumpy
ndarray
p9
(I0
tp10
S'b'
p11
tp12
Rp13
(I1
(I3
tp14
cnumpy
dtype
p15
(S'f8'
p16
I0
I1
tp17
Rp18
(I3
S'<'
p19
NNNI-1
I-1
I0
tp20
bI00
S'\xf6\x1c\x19\xb3\xb4\xf8\xdc\xbe;\xd2U\x16\xf2\xc0\x05\xbf+\xdd\x0cEk5\x1d?'
p21
tp22
bsS'nfev'
p23
I40
sS'fun'
p24
cnumpy.core.multiarray
scalar
p25
(g18
S'\xa24(:\x89n\xdb?'
p26
tp27
Rp28
sS'x'
p29
g8
(g9
(I0
tp30
g11
tp31
Rp32
(I1
(I3
tp33
g18
I00
S'\x1c\x9d1\xbc)Q\xf5\xbf\xf4F)iG\xdf\x1c@I[s\xecAt\x0f@'
p34
tp35
bsS'message'
p36
S'A bad approximation caused failure to predict improvement.'
p37
sS'hess'
p38
g8
(g9
(I0
tp39
g11
tp40
Rp41
(I1
(I3
I3
tp42
g18
I00
S'{ w\x918~T@l\xaf\xdbE\xc8TB@\xe7\xd2\xb3\xc9\xb3SR\xc0l\xaf\xdbE\xc8TB@h\x9e&\xc0\xcew0@\xb3\xb8u\x80Kx@\xc0\xe7\xd2\xb3\xc9\xb3SR\xc0\xb3\xb8u\x80Kx@\xc0\x02\xb2\x87\xb6\xc6wP@'
p43
tp44
bsS'njev'
p45
I15
sS'nit'
p46
I38
stp47
Rp48
.