ccopy_reg
_reconstructor
p0
(cscipy.optimize.optimize
OptimizeResult
p1
c__builtin__
dict
p2
(dp3
S'status'
p4
I0
sS'nhev'
p5
I12
sS'success'
p6
I01
sS'jac'
p7
cnumpy.core.multiarray
_reconstruct
p8
(cnumpy
ndarray
p9
(I0
tp10
S'b'
p11
tp12
Rp13
(I1
(I3
tp14
cnumpy
dtype
p15
(S'f8'
p16
I0
I1
tp17
Rp18
(I3
S'<'
p19
NNNI-1
I-1
I0
tp20
bI00
S'J\xcd\xf4y\xcdL\xf7\xbe\x11\xfc*\xf7t\x05\xe5\xbe\r\xa3\x9b\xd4\xfd\x14\x05?'
p21
tp22
bsS'nfev'
p23
I27
sS'fun'
p24
cnumpy.core.multiarray
scalar
p25
(g18
S'^5\xf8\x9d\x88n\xdb?'
p26
tp27
Rp28
sS'x'
p29
g8
(g9
(I0
tp30
g11
tp31
Rp32
(I1
(I3
tp33
g18
I00
S'\x16\xafV \xfeP\xf5\xbf\xf4\x135t[\xad @\xbb8Lf\xe4\xf7\x11@'
p34
tp35
bsS'message'
p36
S'Optimization terminated successfully.'
p37
sS'hess'
p38
g8
(g9
(I0
tp39
g11
tp40
Rp41
(I1
(I3
I3
tp42
g18
I00
S'\x17\xe58\xf5$~T@\xa1\xf4T\xf7\xc3SB@pD~s\xeeSR\xc0\xa1\xf4T\xf7\xc3SB@\xa1~\x0f\xce\xa8w0@\x9a\x00\xcf\x08<x@\xc0pD~s\xeeSR\xc0\x9a\x00\xcf\x08<x@\xc0\x90|*L\xe1wP@'
p43
tp44
bsS'njev'
p45
I13
sS'nit'
p46
I26
stp47
Rp48
.