ccopy_reg
_reconstructor
p0
(cscipy.optimize.optimize
OptimizeResult
p1
c__builtin__
dict
p2
(dp3
S'status'
p4
I2
sS'success'
p5
I01
sS'nfev'
p6
I8
sS'fun'
p7
cnumpy.core.multiarray
scalar
p8
(cnumpy
dtype
p9
(S'f8'
p10
I0
I1
tp11
Rp12
(I3
S'<'
p13
NNNI-1
I-1
I0
tp14
bS'\xba2\x99sz-\xde?'
p15
tp16
Rp17
sS'x'
p18
cnumpy.core.multiarray
_reconstruct
p19
(cnumpy
ndarray
p20
(I0
tp21
S'b'
p22
tp23
Rp24
(I1
(I3
tp25
g12
I00
S'>\x94>#s\x1c\xcb?\xd3\xa2\xef\x89\x8d\x06\x1f@\x8d\xe0\x1aK\xa5-\x17@'
p26
tp27
bsS'message'
p28
S'Converged (|x_n-x_(n-1)| ~= 0)'
p29
sS'jac'
p30
g19
(g20
(I0
tp31
g22
tp32
Rp33
(I1
(I3
tp34
g12
I00
S'\xf3g\xd3\xbb\x17\x03\x98\xbf\x1b;\x14\x98\xc9\xfb\x8e\xbf\x8b\xe0\xd7\xd2T\xe4\x9e?'
p35
tp36
bsS'nit'
p37
I2
stp38
Rp39
.