ccopy_reg
_reconstructor
p0
(cscipy.optimize.optimize
OptimizeResult
p1
c__builtin__
dict
p2
(dp3
S'status'
p4
I2
sS'success'
p5
I00
sS'jac'
p6
cnumpy.core.multiarray
_reconstruct
p7
(cnumpy
ndarray
p8
(I0
tp9
S'b'
p10
tp11
Rp12
(I1
(I3
tp13
cnumpy
dtype
p14
(S'f8'
p15
I0
I1
tp16
Rp17
(I3
S'<'
p18
NNNI-1
I-1
I0
tp19
bI00
S'\xc5\x91\xf5\xb4\xa3\xb4\x15\xc0C\xf0\xf6\x83\xa6>\x03\xc0\xb8\xedsT\xa1>\x13@'
p20
tp21
bsS'nfev'
p22
I44
sS'fun'
p23
cnumpy.core.multiarray
scalar
p24
(g17
S'\x1e\x88\xef\xa3\xde\xec8@'
p25
tp26
Rp27
sS'x'
p28
g7
(g8
(I0
tp29
g10
tp30
Rp31
(I1
(I3
tp32
g17
I00
S'\x96\xfeX\r@}\x05\xc0U\x9b\x96\xcf\x7fB!@S\x18\xc0\xa7\x18\xd1\x14@'
p33
tp34
bsS'message'
p35
S'Desired error not necessarily achieved due to precision loss.'
p36
sS'njev'
p37
I41
stp38
Rp39
.