ccopy_reg
_reconstructor
p0
(cscipy.optimize.optimize
OptimizeResult
p1
c__builtin__
dict
p2
(dp3
S'status'
p4
I0
sS'success'
p5
I01
sS'jac'
p6
cnumpy.core.multiarray
_reconstruct
p7
(cnumpy
ndarray
p8
(I0
tp9
S'b'
p10
tp11
Rp12
(I1
(I3
tp13
cnumpy
dtype
p14
(S'f8'
p15
I0
I1
tp16
Rp17
(I3
S'<'
p18
NNNI-1
I-1
I0
tp19
bI00
S'\xae\xe1\xa6\x04b\xe5&\xbf\xb5\xa7B\xf7\xf6\xbf!?<\x97e\xa6\x10Y1\xbf'
p20
tp21
bsS'nfev'
p22
I54
sS'fun'
p23
F0.42862209816172686
sS'x'
p24
g7
(g8
(I0
tp25
g10
tp26
Rp27
(I1
(I3
tp28
g17
I00
S'-\xbf+\x86\nV\xf5\xbfq>\x01\xaf \x07\x1d@\xec\x0b\xb6\xeca\x99\x0f@'
p29
tp30
bsS'message'
p31
S'Optimization terminated successfully.'
p32
sS'nhev'
p33
I44
sS'njev'
p34
I96
stp35
Rp36
.