ccopy_reg
_reconstructor
p0
(cscipy.optimize.optimize
OptimizeResult
p1
c__builtin__
dict
p2
(dp3
S'status'
p4
I0
sS'success'
p5
I01
sS'jac'
p6
cnumpy.core.multiarray
_reconstruct
p7
(cnumpy
ndarray
p8
(I0
tp9
S'b'
p10
tp11
Rp12
(I1
(I3
tp13
cnumpy
dtype
p14
(S'f8'
p15
I0
I1
tp16
Rp17
(I3
S'<'
p18
NNNI-1
I-1
I0
tp19
bI00
S'$\xcfi\xf4J\xb5_\xbf*v\xa4\xc2\xc5\xacH\xbf\x8fj\x1b\xfb\xfb\x91Z?'
p20
tp21
bsS'nfev'
p22
I17
sS'fun'
p23
F0.42862257393268877
sS'x'
p24
g7
(g8
(I0
tp25
g10
tp26
Rp27
(I1
(I3
tp28
g17
I00
S'\xf2,H\x8fCT\xf5\xbf\xe0q?\x9cA<\x1d@m\xb1\x9d\xba\x80\xcf\x0f@'
p29
tp30
bsS'message'
p31
S'Optimization terminated successfully.'
p32
sS'nhev'
p33
I11
sS'njev'
p34
I27
stp35
Rp36
.