ccopy_reg
_reconstructor
p0
(cscipy.optimize.optimize
OptimizeResult
p1
c__builtin__
dict
p2
(dp3
S'status'
p4
I0
sS'success'
p5
I01
sS'jac'
p6
cnumpy.core.multiarray
_reconstruct
p7
(cnumpy
ndarray
p8
(I0
tp9
S'b'
p10
tp11
Rp12
(I1
(I3
tp13
cnumpy
dtype
p14
(S'f8'
p15
I0
I1
tp16
Rp17
(I3
S'<'
p18
NNNI-1
I-1
I0
tp19
bI00
S'\n\xabS\x8c\x9f\x9a\xfe>\xf7\xa5\x08\x01\x86\xc9\xf9>\xd0=P\xc6\xd6\xb0\xf7>'
p20
tp21
bsS'nfev'
p22
I26
sS'fun'
p23
F0.4286233725319393
sS'x'
p24
g7
(g8
(I0
tp25
g10
tp26
Rp27
(I1
(I3
tp28
g17
I00
S'\xa7\x08\x93"\xe6Q\xf5\xbf\xf02\xa0\xe0C\xe3\x18@\x03\x171%\xd9w\x0b@'
p29
tp30
bsS'message'
p31
S'Optimization terminated successfully.'
p32
sS'nhev'
p33
I19
sS'njev'
p34
I44
stp35
Rp36
.