ccopy_reg
_reconstructor
p0
(cscipy.optimize.optimize
OptimizeResult
p1
c__builtin__
dict
p2
(dp3
S'status'
p4
I2
sS'success'
p5
I00
sS'jac'
p6
cnumpy.core.multiarray
_reconstruct
p7
(cnumpy
ndarray
p8
(I0
tp9
S'b'
p10
tp11
Rp12
(I1
(I3
tp13
cnumpy
dtype
p14
(S'f8'
p15
I0
I1
tp16
Rp17
(I3
S'<'
p18
NNNI-1
I-1
I0
tp19
bI00
S'D\xf0\x0f\xa6\x15x(?\xb8G\xf4&\xa0-\x1b?,=+\x98L\xad\x18\xbf'
p20
tp21
bsS'nfev'
p22
I34
sS'fun'
p23
F0.42862248579767137
sS'x'
p24
g7
(g8
(I0
tp25
g10
tp26
Rp27
(I1
(I3
tp28
g17
I00
S'\xec\xd3\x8e\x9btO\xf5\xbf\xea#:\xe4!!\x1c@\x15=\x1f\xa3\x0f\xb7\x0e@'
p29
tp30
bsS'message'
p31
S'Desired error not necessarily achieved due to precision loss.'
p32
sS'nhev'
p33
I7
sS'njev'
p34
I28
stp35
Rp36
.