ccopy_reg
_reconstructor
p0
(cscipy.optimize.optimize
OptimizeResult
p1
c__builtin__
dict
p2
(dp3
S'status'
p4
I2
sS'success'
p5
I00
sS'jac'
p6
cnumpy.core.multiarray
_reconstruct
p7
(cnumpy
ndarray
p8
(I0
tp9
S'b'
p10
tp11
Rp12
(I1
(I3
tp13
cnumpy
dtype
p14
(S'f8'
p15
I0
I1
tp16
Rp17
(I3
S'<'
p18
NNNI-1
I-1
I0
tp19
bI00
S'\x8fG\x8b\x0e\x07\x18S\xbf\xe7\xf8\xb8\x8f\x1f\x18=\xbf\x08\xbf\x8d\x01(!P?'
p20
tp21
bsS'nfev'
p22
I56
sS'fun'
p23
F0.4286223519956813
sS'x'
p24
g7
(g8
(I0
tp25
g10
tp26
Rp27
(I1
(I3
tp28
g17
I00
S'\x1f<O\xd2SR\xf5\xbf\x8f^\xe0\xc9\x8fi\x1c@f\x12\x0b\r\xec\xfd\x0e@'
p29
tp30
bsS'message'
p31
S'Desired error not necessarily achieved due to precision loss.'
p32
sS'nhev'
p33
I13
sS'njev'
p34
I58
stp35
Rp36
.