ccopy_reg
_reconstructor
p0
(cscipy.optimize.optimize
OptimizeResult
p1
c__builtin__
dict
p2
(dp3
S'status'
p4
I2
sS'nhev'
p5
I17
sS'success'
p6
I00
sS'jac'
p7
cnumpy.core.multiarray
_reconstruct
p8
(cnumpy
ndarray
p9
(I0
tp10
S'b'
p11
tp12
Rp13
(I1
(I3
tp14
cnumpy
dtype
p15
(S'f8'
p16
I0
I1
tp17
Rp18
(I3
S'<'
p19
NNNI-1
I-1
I0
tp20
bI00
S"6\xd0\x9cOU\x97(\xbfSP\x98H\xa7\xe8\x07?R#\xf1\xd6\xd0' ?"
p21
tp22
bsS'nfev'
p23
I41
sS'fun'
p24
cnumpy.core.multiarray
scalar
p25
(g18
S'`X\xc6`\x8dn\xdb?'
p26
tp27
Rp28
sS'x'
p29
g8
(g9
(I0
tp30
g11
tp31
Rp32
(I1
(I3
tp33
g18
I00
S'P)*\xafdR\xf5\xbf\xfb0\x9a\x1d|\xab\x1a@\xb0\xe8q\x19\xc9?\r@'
p34
tp35
bsS'message'
p36
S'A bad approximation caused failure to predict improvement.'
p37
sS'hess'
p38
g8
(g9
(I0
tp39
g11
tp40
Rp41
(I1
(I3
I3
tp42
g18
I00
S'\xbd\xeb\xe1sl~T@ {\x0b3TSB@i\xbb\x926\x98SR\xc0 {\x0b3TSB@\xffz\xf3[^w0@\x98BV!\x17w@\xc0i\xbb\x926\x98SR\xc0\x98BV!\x17w@\xc0N\xe6\x85\xc4:wP@'
p43
tp44
bsS'njev'
p45
I17
sS'nit'
p46
I39
stp47
Rp48
.