ccopy_reg
_reconstructor
p0
(cscipy.optimize.optimize
OptimizeResult
p1
c__builtin__
dict
p2
(dp3
S'status'
p4
I3
sS'nhev'
p5
I2
sS'success'
p6
I00
sS'jac'
p7
cnumpy.core.multiarray
_reconstruct
p8
(cnumpy
ndarray
p9
(I0
tp10
S'b'
p11
tp12
Rp13
(I1
(I3
tp14
cnumpy
dtype
p15
(S'f8'
p16
I0
I1
tp17
Rp18
(I3
S'<'
p19
NNNI-1
I-1
I0
tp20
bI00
S'V\\\xdf\xf2\xdbJ\x1a@J\xb9\x13X\x80*\t@\x91\r\xc2(G*\x19\xc0'
p21
tp22
bsS'nfev'
p23
I3
sS'fun'
p24
cnumpy.core.multiarray
scalar
p25
(g18
S'%]\xab\x91\xc9,\xe6?'
p26
tp27
Rp28
sS'x'
p29
g8
(g9
(I0
tp30
g11
tp31
Rp32
(I1
(I3
tp33
g18
I00
S'@\xa9_N\x10\x1e\xe9\xbf\xaf\x18\x03.>\xd1\x16@L(w\x02\x85n\r@'
p34
tp35
bsS'message'
p36
S'A linalg error occurred, such as a non-psd Hessian.'
p37
sS'hess'
p38
g8
(g9
(I0
tp39
g11
tp40
Rp41
(I1
(I3
I3
tp42
g18
I00
S"\xf3$$L\x8e\x00W@%'\xd4\xe7\x935F@\x80\r\x0b\xbf\x975V\xc0%'\xd4\xe7\x935F@7\xf7U\x17\x82P5@\x00<\xee\xf0{NE\xc0\x80\r\x0b\xbf\x975V\xc0\x00<\xee\xf0{NE\xc0\x89&6D\xc9NU@"
p43
tp44
bsS'njev'
p45
I2
sS'nit'
p46
I2
stp47
Rp48
.