ccopy_reg
_reconstructor
p0
(cscipy.optimize.optimize
OptimizeResult
p1
c__builtin__
dict
p2
(dp3
S'status'
p4
I2
sS'success'
p5
I00
sS'jac'
p6
cnumpy.core.multiarray
_reconstruct
p7
(cnumpy
ndarray
p8
(I0
tp9
S'b'
p10
tp11
Rp12
(I1
(I3
tp13
cnumpy
dtype
p14
(S'f8'
p15
I0
I1
tp16
Rp17
(I3
S'<'
p18
NNNI-1
I-1
I0
tp19
bI00
S'\x8b\xee\x82\xaf\xa2\xb6\xd1\xbfTI]\x1d\xc5\x8a\xc3\xbf\x81\x9f\x12\xd8e\x8b\xd3?'
p20
tp21
bsS'nfev'
p22
I16
sS'fun'
p23
F0.45620036024416594
sS'x'
p24
g7
(g8
(I0
tp25
g10
tp26
Rp27
(I1
(I3
tp28
g17
I00
S'\xf4\r|]$\xd4\xe4\xbf\x8d\xb6%\x96\x92m\x1b@\xfd2\xe3K\xca\xe7\x11@'
p29
tp30
bsS'message'
p31
S'Desired error not necessarily achieved due to precision loss.'
p32
sS'njev'
p33
I4
stp34
Rp35
.