ccopy_reg
_reconstructor
p0
(cscipy.optimize.optimize
OptimizeResult
p1
c__builtin__
dict
p2
(dp3
S'status'
p4
I2
sS'success'
p5
I01
sS'nfev'
p6
I98
sS'fun'
p7
cnumpy.core.multiarray
scalar
p8
(cnumpy
dtype
p9
(S'f8'
p10
I0
I1
tp11
Rp12
(I3
S'<'
p13
NNNI-1
I-1
I0
tp14
bS'\xa3\x07\xe2\xd1F\x08\xdc?'
p15
tp16
Rp17
sS'x'
p18
cnumpy.core.multiarray
_reconstruct
p19
(cnumpy
ndarray
p20
(I0
tp21
S'b'
p22
tp23
Rp24
(I1
(I3
tp25
g12
I00
S'\x87\xe3,\xf2\ty\xf7\xbf\xf5\x9d\xbd\x16Hv\x1d@\xb4[\x19\x16\xce\xec\x0e@'
p26
tp27
bsS'message'
p28
S'Converged (|x_n-x_(n-1)| ~= 0)'
p29
sS'jac'
p30
g19
(g20
(I0
tp31
g22
tp32
Rp33
(I1
(I3
tp34
g12
I00
S'\xf7\x99\x94,\x90 \xef\xbf|\xecR\x1d\xdd\xff\xd8\xbf\xfb\xb0P}\xf4\xff\xe8?'
p35
tp36
bsS'nit'
p37
I12
stp38
Rp39
.