ccopy_reg
_reconstructor
p0
(cscipy.optimize.optimize
OptimizeResult
p1
c__builtin__
dict
p2
(dp3
S'status'
p4
I2
sS'success'
p5
I00
sS'jac'
p6
cnumpy.core.multiarray
_reconstruct
p7
(cnumpy
ndarray
p8
(I0
tp9
S'b'
p10
tp11
Rp12
(I1
(I3
tp13
cnumpy
dtype
p14
(S'f8'
p15
I0
I1
tp16
Rp17
(I3
S'<'
p18
NNNI-1
I-1
I0
tp19
bI00
S'\xe0\x99\x18\xf43\x0f\x1e\xbf\xd4!5\xe9m\xce\xfe\xbe\x0e\xbc\x0f\xc8;\xf6\x02?'
p20
tp21
bsS'nfev'
p22
I38
sS'fun'
p23
F0.4286221499026057
sS'x'
p24
g7
(g8
(I0
tp25
g10
tp26
Rp27
(I1
(I3
tp28
g17
I00
S'\xe6h\xfaRAR\xf5\xbf+@P\xcd|B\x1c@\x1184\x05\xdc\xd6\x0e@'
p29
tp30
bsS'message'
p31
S'Desired error not necessarily achieved due to precision loss.'
p32
sS'nhev'
p33
I15
sS'njev'
p34
I40
stp35
Rp36
.