ccopy_reg
_reconstructor
p0
(cscipy.optimize.optimize
OptimizeResult
p1
c__builtin__
dict
p2
(dp3
S'status'
p4
I2
sS'nhev'
p5
I10
sS'success'
p6
I00
sS'jac'
p7
cnumpy.core.multiarray
_reconstruct
p8
(cnumpy
ndarray
p9
(I0
tp10
S'b'
p11
tp12
Rp13
(I1
(I3
tp14
cnumpy
dtype
p15
(S'f8'
p16
I0
I1
tp17
Rp18
(I3
S'<'
p19
NNNI-1
I-1
I0
tp20
bI00
S"xt\x01\x97jz'?\xac\x1ft\x9d\x13\x12\xf1>Df+Vn\xa5\x19?"
p21
tp22
bsS'nfev'
p23
I35
sS'fun'
p24
cnumpy.core.multiarray
scalar
p25
(g18
S'T\xfd\xb7h\x89n\xdb?'
p26
tp27
Rp28
sS'x'
p29
g8
(g9
(I0
tp30
g11
tp31
Rp32
(I1
(I3
tp33
g18
I00
S'I/\xf8B\x8aO\xf5\xbfI\xe4\x99\x83\x87"\x1c@Ih<\x87i\xb8\x0e@'
p34
tp35
bsS'message'
p36
S'A bad approximation caused failure to predict improvement.'
p37
sS'hess'
p38
g8
(g9
(I0
tp39
g11
tp40
Rp41
(I1
(I3
I3
tp42
g18
I00
S'%;|\xf5\xfa}T@W_\xc5\x14;TB@\xd25\x940mTR\xc0W_\xc5\x14;TB@\n\x9b\x1c\x10cx0@*{q\xa7%x@\xc0\xd25\x940mTR\xc0*{q\xa7%x@\xc0<\x9e\x0b\xf8exP@'
p43
tp44
bsS'njev'
p45
I10
sS'nit'
p46
I33
stp47
Rp48
.