ccopy_reg
_reconstructor
p0
(cscipy.optimize.optimize
OptimizeResult
p1
c__builtin__
dict
p2
(dp3
S'status'
p4
I4
sS'success'
p5
I00
sS'nfev'
p6
I66
sS'fun'
p7
cnumpy.core.multiarray
scalar
p8
(cnumpy
dtype
p9
(S'f8'
p10
I0
I1
tp11
Rp12
(I3
S'<'
p13
NNNI-1
I-1
I0
tp14
bS'T\xb4\xfa\xb4>J:@'
p15
tp16
Rp17
sS'x'
p18
cnumpy.core.multiarray
_reconstruct
p19
(cnumpy
ndarray
p20
(I0
tp21
S'b'
p22
tp23
Rp24
(I1
(I3
tp25
g12
I00
S'1\xc2\x14\xf8[\t\x04\xc0&\x11\xc1\xe5\x08\xab!@\xa2\x8a\x14\xb6\xa1b\x17@'
p26
tp27
bsS'message'
p28
S'Linear search failed'
p29
sS'jac'
p30
g19
(g20
(I0
tp31
g22
tp32
Rp33
(I1
(I3
tp34
g12
I00
S"~\x98\xcaF\xbd\xb8\n\xc0\x92\xb4'\x98\x88z\xf9\xbf\xbc\x9d1n\xf9y\t@"
p35
tp36
bsS'nit'
p37
I0
stp38
Rp39
.