ccopy_reg
_reconstructor
p0
(cscipy.optimize.optimize
OptimizeResult
p1
c__builtin__
dict
p2
(dp3
S'status'
p4
I2
sS'nhev'
p5
I14
sS'success'
p6
I00
sS'jac'
p7
cnumpy.core.multiarray
_reconstruct
p8
(cnumpy
ndarray
p9
(I0
tp10
S'b'
p11
tp12
Rp13
(I1
(I3
tp14
cnumpy
dtype
p15
(S'f8'
p16
I0
I1
tp17
Rp18
(I3
S'<'
p19
NNNI-1
I-1
I0
tp20
bI00
S'\xa0\xe9\xd5!-\x192\xbf\xcd\xddK\x83(\xee\x1d?\x1dC(y6\xb90\xbf'
p21
tp22
bsS'nfev'
p23
I40
sS'fun'
p24
cnumpy.core.multiarray
scalar
p25
(g18
S'\xe2\\\xbb\x11\x90n\xdb?'
p26
tp27
Rp28
sS'x'
p29
g8
(g9
(I0
tp30
g11
tp31
Rp32
(I1
(I3
tp33
g18
I00
S'\xe9^\x93\xfc\xa0U\xf5\xbf\xd8\x01\x8e[[9\x19@z\x8c\xa9\xbc\xdb\xcb\x0b@'
p34
tp35
bsS'message'
p36
S'A bad approximation caused failure to predict improvement.'
p37
sS'hess'
p38
g8
(g9
(I0
tp39
g11
tp40
Rp41
(I1
(I3
I3
tp42
g18
I00
S'o\x05\x95i\xba~T@9k/L\x04SB@eM<p\xc3RR\xc09k/L\x04SB@I*\x13\x19\xb9u0@\x0c\xb3h\xb6\x19v@\xc0eM<p\xc3RR\xc0\x0c\xb3h\xb6\x19v@\xc0#\x9b#4\xc9uP@'
p43
tp44
bsS'njev'
p45
I14
sS'nit'
p46
I38
stp47
Rp48
.