ccopy_reg
_reconstructor
p0
(cscipy.optimize.optimize
OptimizeResult
p1
c__builtin__
dict
p2
(dp3
S'status'
p4
I2
sS'success'
p5
I01
sS'nfev'
p6
I14
sS'fun'
p7
cnumpy.core.multiarray
scalar
p8
(cnumpy
dtype
p9
(S'f8'
p10
I0
I1
tp11
Rp12
(I3
S'<'
p13
NNNI-1
I-1
I0
tp14
bS'\xfa\xaf\xf5\xf0\x93\x00\xde?'
p15
tp16
Rp17
sS'x'
p18
cnumpy.core.multiarray
_reconstruct
p19
(cnumpy
ndarray
p20
(I0
tp21
S'b'
p22
tp23
Rp24
(I1
(I3
tp25
g12
I00
S'\x11\x9ds\xc7\x92\xcc\xb4\xbf\x86\x959\x86:\xc5\x18@$}\xc4W#\xde\x12@'
p26
tp27
bsS'message'
p28
S'Converged (|x_n-x_(n-1)| ~= 0)'
p29
sS'jac'
p30
g19
(g20
(I0
tp31
g22
tp32
Rp33
(I1
(I3
tp34
g12
I00
S'e36\xe0\x08I\xb3?\x04\x1e\xdd\xa8\x96\xbd\x9f?\xe7\x9f_\x02\xf7\xd3\xaf\xbf'
p35
tp36
bsS'nit'
p37
I3
stp38
Rp39
.