ccopy_reg
_reconstructor
p0
(cscipy.optimize.optimize
OptimizeResult
p1
c__builtin__
dict
p2
(dp3
S'status'
p4
I1
sS'success'
p5
I01
sS'nfev'
p6
I100
sS'fun'
p7
cnumpy.core.multiarray
scalar
p8
(cnumpy
dtype
p9
(S'f8'
p10
I0
I1
tp11
Rp12
(I3
S'<'
p13
NNNI-1
I-1
I0
tp14
bS'\x8bu\x10\xb1y\x9e\xdb?'
p15
tp16
Rp17
sS'x'
p18
cnumpy.core.multiarray
_reconstruct
p19
(cnumpy
ndarray
p20
(I0
tp21
S'b'
p22
tp23
Rp24
(I1
(I3
tp25
g12
I00
S'\x1c\x1f\xcfD\x1f\x1c\xf7\xbf[\xd8J_\xc8\xeb\x1f@\xac\x9b\x07\xd2\xb1\xbe\x10@'
p26
tp27
bsS'message'
p28
S'Converged (|f_n-f_(n-1)| ~= 0)'
p29
sS'jac'
p30
g19
(g20
(I0
tp31
g22
tp32
Rp33
(I1
(I3
tp34
g12
I00
S'\xc9T\x8b\x97\xc5L\xa7\xbf%\xa0\xd8\xdd\xfd\xe5u?nzKW$\xc3\x85\xbf'
p35
tp36
bsS'nit'
p37
I14
stp38
Rp39
.