ccopy_reg
_reconstructor
p0
(cscipy.optimize.optimize
OptimizeResult
p1
c__builtin__
dict
p2
(dp3
S'status'
p4
I0
sS'nhev'
p5
I20
sS'success'
p6
I01
sS'jac'
p7
cnumpy.core.multiarray
_reconstruct
p8
(cnumpy
ndarray
p9
(I0
tp10
S'b'
p11
tp12
Rp13
(I1
(I3
tp14
cnumpy
dtype
p15
(S'f8'
p16
I0
I1
tp17
Rp18
(I3
S'<'
p19
NNNI-1
I-1
I0
tp20
bI00
S'^\x0f\xf8\x84\xa6d\n\xbf\x02c\x98\x92\xe2j\xe7\xbe\xf4\xf0\xe7M\x1aD\xd6>'
p21
tp22
bsS'nfev'
p23
I43
sS'fun'
p24
cnumpy.core.multiarray
scalar
p25
(g18
S'n\xa4\x11[\x89n\xdb?'
p26
tp27
Rp28
sS'x'
p29
g8
(g9
(I0
tp30
g11
tp31
Rp32
(I1
(I3
tp33
g18
I00
S'V\x95,\xb8>N\xf5\xbf/V\x1a\n\x15?\x1e@\xdb\xdf\xd1\x98\xd7j\x10@'
p34
tp35
bsS'message'
p36
S'Optimization terminated successfully.'
p37
sS'hess'
p38
g8
(g9
(I0
tp39
g11
tp40
Rp41
(I1
(I3
I3
tp42
g18
I00
S"\x9dtI\xb5\x85}T@'@f\xf3\xd4TB@\xe1\x0b\xafqnTR\xc0'@f\xf3\xd4TB@\xca\x8d\xf9\xe5\xd1x0@*K\xefv`y@\xc0\xe1\x0b\xafqnTR\xc0*K\xefv`y@\xc0\xb6O\xc7r\xfaxP@"
p43
tp44
bsS'njev'
p45
I21
sS'nit'
p46
I42
stp47
Rp48
.