ccopy_reg
_reconstructor
p0
(cscipy.optimize.optimize
OptimizeResult
p1
c__builtin__
dict
p2
(dp3
S'status'
p4
I2
sS'success'
p5
I00
sS'jac'
p6
cnumpy.core.multiarray
_reconstruct
p7
(cnumpy
ndarray
p8
(I0
tp9
S'b'
p10
tp11
Rp12
(I1
(I3
tp13
cnumpy
dtype
p14
(S'f8'
p15
I0
I1
tp16
Rp17
(I3
S'<'
p18
NNNI-1
I-1
I0
tp19
bI00
S'\xa6\x0c\x18\xd9jT"@\xc3yA\xbe\x02\xca\xeb?\xdb\x82\x9e0\xab\xc9\xfb\xbf'
p20
tp21
bsS'nfev'
p22
I16
sS'fun'
p23
F1.9128512005722524
sS'x'
p24
g7
(g8
(I0
tp25
g10
tp26
Rp27
(I1
(I3
tp28
g17
I00
S'\xb3)\xc1\xf2\x08\xf5\x01\xc0\x97\x92\x0eo:\x05 @\xcc\xabS/u\x9c\x03@'
p29
tp30
bsS'message'
p31
S'Desired error not necessarily achieved due to precision loss.'
p32
sS'njev'
p33
I4
stp34
Rp35
.