ccopy_reg
_reconstructor
p0
(cscipy.optimize.optimize
OptimizeResult
p1
c__builtin__
dict
p2
(dp3
S'status'
p4
I2
sS'success'
p5
I00
sS'jac'
p6
cnumpy.core.multiarray
_reconstruct
p7
(cnumpy
ndarray
p8
(I0
tp9
S'b'
p10
tp11
Rp12
(I1
(I3
tp13
cnumpy
dtype
p14
(S'f8'
p15
I0
I1
tp16
Rp17
(I3
S'<'
p18
NNNI-1
I-1
I0
tp19
bI00
S'U\x94S\x10\xa9\x06\x0f?\xce~\x0f~\xffN\x07\xbf|\re\xa0=\xa0\x03?'
p20
tp21
bsS'nfev'
p22
I36
sS'fun'
p23
F0.42862363280109395
sS'x'
p24
g7
(g8
(I0
tp25
g10
tp26
Rp27
(I1
(I3
tp28
g17
I00
S'\x80+ap\x82Q\xf5\xbf\xd8\xe8gH\xcc\x03\x19@$/\xa5#\x98\x98\x0b@'
p29
tp30
bsS'message'
p31
S'Desired error not necessarily achieved due to precision loss.'
p32
sS'nhev'
p33
I13
sS'njev'
p34
I36
stp35
Rp36
.