ccopy_reg
_reconstructor
p0
(cscipy.optimize.optimize
OptimizeResult
p1
c__builtin__
dict
p2
(dp3
S'status'
p4
I4
sS'success'
p5
I00
sS'nfev'
p6
I68
sS'fun'
p7
cnumpy.core.multiarray
scalar
p8
(cnumpy
dtype
p9
(S'f8'
p10
I0
I1
tp11
Rp12
(I3
S'<'
p13
NNNI-1
I-1
I0
tp14
bS'J:\xd0\xaf\x12\xdf:@'
p15
tp16
Rp17
sS'x'
p18
cnumpy.core.multiarray
_reconstruct
p19
(cnumpy
ndarray
p20
(I0
tp21
S'b'
p22
tp23
Rp24
(I1
(I3
tp25
g12
I00
S'\nV4S;\xe9\t\xc0Z\xc9\xe04\xe5\x12\x16@\x1au\xa0\xca\xfa\xbe\x0c@'
p26
tp27
bsS'message'
p28
S'Linear search failed'
p29
sS'jac'
p30
g19
(g20
(I0
tp31
g22
tp32
Rp33
(I1
(I3
tp34
g12
I00
S'd\x86\xfc\x18\xdd\xba\x04\xc0`L\xc2\x0bJ\x10\xf1\xbf\x1e\x0f\xb85O\x13\x01@'
p35
tp36
bsS'nit'
p37
I1
stp38
Rp39
.