ccopy_reg
_reconstructor
p0
(cscipy.optimize.optimize
OptimizeResult
p1
c__builtin__
dict
p2
(dp3
S'status'
p4
I2
sS'success'
p5
I00
sS'jac'
p6
cnumpy.core.multiarray
_reconstruct
p7
(cnumpy
ndarray
p8
(I0
tp9
S'b'
p10
tp11
Rp12
(I1
(I3
tp13
cnumpy
dtype
p14
(S'f8'
p15
I0
I1
tp16
Rp17
(I3
S'<'
p18
NNNI-1
I-1
I0
tp19
bI00
S'Nv\x0c\xd9\x1d\xb8\x1a\xbf*$\xf5\x0b\n\xb1\x14\xbf\x1f\xd8\xbd\xaay]&?'
p20
tp21
bsS'nfev'
p22
I59
sS'fun'
p23
F0.4286222684968597
sS'x'
p24
g7
(g8
(I0
tp25
g10
tp26
Rp27
(I1
(I3
tp28
g17
I00
S'@\x15\x8d\xda\xddQ\xf5\xbf\xfc\xb5$G\x87\x14\x1f@{\xb5EV\x8e\xd4\x10@'
p29
tp30
bsS'message'
p31
S'Desired error not necessarily achieved due to precision loss.'
p32
sS'nhev'
p33
I35
sS'njev'
p34
I83
stp35
Rp36
.