ccopy_reg
_reconstructor
p0
(cscipy.optimize.optimize
OptimizeResult
p1
c__builtin__
dict
p2
(dp3
S'status'
p4
I0
sS'success'
p5
I01
sS'jac'
p6
cnumpy.core.multiarray
_reconstruct
p7
(cnumpy
ndarray
p8
(I0
tp9
S'b'
p10
tp11
Rp12
(I1
(I3
tp13
cnumpy
dtype
p14
(S'f8'
p15
I0
I1
tp16
Rp17
(I3
S'<'
p18
NNNI-1
I-1
I0
tp19
bI00
S"'Y\x075\xf5\x97*\xbf\x8e\x83bl\xeex$?\xf9\xd1C\x0c\x85\xcf1\xbf"
p20
tp21
bsS'nfev'
p22
I152
sS'fun'
p23
F0.4286245736000075
sS'x'
p24
g7
(g8
(I0
tp25
g10
tp26
Rp27
(I1
(I3
tp28
g17
I00
S'\xe5\x9eP\xdb\xddV\xf5\xbf\xf5q\\\xee)\xa0\x17@\x82\xd4M.\xfb1\n@'
p29
tp30
bsS'message'
p31
S'Optimization terminated successfully.'
p32
sS'nhev'
p33
I137
sS'njev'
p34
I288
stp35
Rp36
.