ccopy_reg
_reconstructor
p0
(cscipy.optimize.optimize
OptimizeResult
p1
c__builtin__
dict
p2
(dp3
S'status'
p4
I0
sS'nhev'
p5
I17
sS'success'
p6
I01
sS'jac'
p7
cnumpy.core.multiarray
_reconstruct
p8
(cnumpy
ndarray
p9
(I0
tp10
S'b'
p11
tp12
Rp13
(I1
(I3
tp14
cnumpy
dtype
p15
(S'f8'
p16
I0
I1
tp17
Rp18
(I3
S'<'
p19
NNNI-1
I-1
I0
tp20
bI00
S'\x0c\xa9\\+\xb8\xd5\x01\xbf\xb4\x82\xbdtSO\x0c\xbf\xf6\xb8\xc2\x84X=\x07\xbf'
p21
tp22
bsS'nfev'
p23
I36
sS'fun'
p24
cnumpy.core.multiarray
scalar
p25
(g18
S'B\xae\n\x16\x98n\xdb?'
p26
tp27
Rp28
sS'x'
p29
g8
(g9
(I0
tp30
g11
tp31
Rp32
(I1
(I3
tp33
g18
I00
S'X\xec\xcfozR\xf5\xbf\xdfJ\x0e\x10\x1c\xcd\x16@\xb0\xb6G\xeaba\t@'
p34
tp35
bsS'message'
p36
S'Optimization terminated successfully.'
p37
sS'hess'
p38
g8
(g9
(I0
tp39
g11
tp40
Rp41
(I1
(I3
I3
tp42
g18
I00
S'a\xa6\xc4/\xae}T@X,\xd5\x88\x15SB@,M\xdd\xcahSR\xc0X,\xd5\x88\x15SB@\x05,\x02\xd0\x1fw0@\xefQ\\n\xadv@\xc0,M\xdd\xcahSR\xc0\xefQ\\n\xadv@\xc0\xeb\x87f"\xedvP@'
p43
tp44
bsS'njev'
p45
I18
sS'nit'
p46
I35
stp47
Rp48
.