ccopy_reg
_reconstructor
p0
(cscipy.optimize.optimize
OptimizeResult
p1
c__builtin__
dict
p2
(dp3
S'status'
p4
I0
sS'success'
p5
I01
sS'jac'
p6
cnumpy.core.multiarray
_reconstruct
p7
(cnumpy
ndarray
p8
(I0
tp9
S'b'
p10
tp11
Rp12
(I1
(I3
tp13
cnumpy
dtype
p14
(S'f8'
p15
I0
I1
tp16
Rp17
(I3
S'<'
p18
NNNI-1
I-1
I0
tp19
bI00
S'\xc2\x8cs\xb7Gc\xd3>n\x99\x906V1\x03\xbf\x89\xcecc\x884\x04?'
p20
tp21
bsS'nfev'
p22
I19
sS'fun'
p23
F0.42862242133489786
sS'x'
p24
g7
(g8
(I0
tp25
g10
tp26
Rp27
(I1
(I3
tp28
g17
I00
S'\x92G\xdb\x8dHP\xf5\xbf\xf2\x1c\xda\x040\xe3\x1d@\xd6\xc8\xc5\xc0S<\x10@'
p29
tp30
bsS'message'
p31
S'Optimization terminated successfully.'
p32
sS'nhev'
p33
I16
sS'njev'
p34
I34
stp35
Rp36
.