ccopy_reg
_reconstructor
p0
(cscipy.optimize.optimize
OptimizeResult
p1
c__builtin__
dict
p2
(dp3
S'status'
p4
I0
sS'success'
p5
I01
sS'jac'
p6
cnumpy.core.multiarray
_reconstruct
p7
(cnumpy
ndarray
p8
(I0
tp9
S'b'
p10
tp11
Rp12
(I1
(I3
tp13
cnumpy
dtype
p14
(S'f8'
p15
I0
I1
tp16
Rp17
(I3
S'<'
p18
NNNI-1
I-1
I0
tp19
bI00
S'\xd4\x19\xef\x88b\xeb8\xbf\xd0o\xc8\xca\x1a\xcb\x10?j\x91\xfe\x83\xe3\x94\x14\xbf'
p20
tp21
bsS'nfev'
p22
I373
sS'fun'
p23
F0.42862343498315825
sS'x'
p24
g7
(g8
(I0
tp25
g10
tp26
Rp27
(I1
(I3
tp28
g17
I00
S'hf\x18l)S\xf5\xbfCC\x10.9t\x18@\xd0N5p\x1a\x08\x0b@'
p29
tp30
bsS'message'
p31
S'Optimization terminated successfully.'
p32
sS'nhev'
p33
I362
sS'njev'
p34
I734
stp35
Rp36
.