ccopy_reg
_reconstructor
p0
(cscipy.optimize.optimize
OptimizeResult
p1
c__builtin__
dict
p2
(dp3
S'status'
p4
I2
sS'success'
p5
I00
sS'jac'
p6
cnumpy.core.multiarray
_reconstruct
p7
(cnumpy
ndarray
p8
(I0
tp9
S'b'
p10
tp11
Rp12
(I1
(I3
tp13
cnumpy
dtype
p14
(S'f8'
p15
I0
I1
tp16
Rp17
(I3
S'<'
p18
NNNI-1
I-1
I0
tp19
bI00
S'\xbeGc2\x84N\r\xbf\xf9\xd22e3\xc0\xd3>\x9az\x9cP+\xd6\xe0\xbe'
p20
tp21
bsS'nfev'
p22
I74
sS'fun'
p23
F0.4286218943033937
sS'x'
p24
g7
(g8
(I0
tp25
g10
tp26
Rp27
(I1
(I3
tp28
g17
I00
S'-8\x88z\xbcQ\xf5\xbf`\x80H\xfa\x8bO\x1d@\x1a\x06\x87{4\xe4\x0f@'
p29
tp30
bsS'message'
p31
S'Desired error not necessarily achieved due to precision loss.'
p32
sS'nhev'
p33
I27
sS'njev'
p34
I89
stp35
Rp36
.