ccopy_reg
_reconstructor
p0
(cscipy.optimize.optimize
OptimizeResult
p1
c__builtin__
dict
p2
(dp3
S'status'
p4
I0
sS'success'
p5
I01
sS'jac'
p6
cnumpy.core.multiarray
_reconstruct
p7
(cnumpy
ndarray
p8
(I0
tp9
S'b'
p10
tp11
Rp12
(I1
(I3
tp13
cnumpy
dtype
p14
(S'f8'
p15
I0
I1
tp16
Rp17
(I3
S'<'
p18
NNNI-1
I-1
I0
tp19
bI00
S"\x94~Y\x9e}\xe7+?\xb2\xa7\xd9{\xe55%\xbf\xc0/3\xf4\xf8'\x00?"
p20
tp21
bsS'nfev'
p22
I325
sS'fun'
p23
F0.4286219216856279
sS'x'
p24
g7
(g8
(I0
tp25
g10
tp26
Rp27
(I1
(I3
tp28
g17
I00
S'\xb6\xcb\x87\x1e\xb8K\xf5\xbf\xf2PV\xd1\x00\xd8\x1f@\x06F\xc4\xc8\x018\x11@'
p29
tp30
bsS'message'
p31
S'Optimization terminated successfully.'
p32
sS'nhev'
p33
I301
sS'njev'
p34
I622
stp35
Rp36
.