ccopy_reg
_reconstructor
p0
(cscipy.optimize.optimize
OptimizeResult
p1
c__builtin__
dict
p2
(dp3
S'status'
p4
I0
sS'nhev'
p5
I13
sS'success'
p6
I01
sS'jac'
p7
cnumpy.core.multiarray
_reconstruct
p8
(cnumpy
ndarray
p9
(I0
tp10
S'b'
p11
tp12
Rp13
(I1
(I3
tp14
cnumpy
dtype
p15
(S'f8'
p16
I0
I1
tp17
Rp18
(I3
S'<'
p19
NNNI-1
I-1
I0
tp20
bI00
S'Pa6=\xb4\x05\xe5>A\xec\xb3\x96\xec\xbe\x14\xbf@\xe4`k\xccN\x03?'
p21
tp22
bsS'nfev'
p23
I36
sS'fun'
p24
cnumpy.core.multiarray
scalar
p25
(g18
S'\x18\x907\xa7\x88n\xdb?'
p26
tp27
Rp28
sS'x'
p29
g8
(g9
(I0
tp30
g11
tp31
Rp32
(I1
(I3
tp33
g18
I00
S'bve \xecO\xf5\xbf\x80\x1a\xab\x13\xe3\x07"@\xbf\xc2\xc89\xb8R\x13@'
p34
tp35
bsS'message'
p36
S'Optimization terminated successfully.'
p37
sS'hess'
p38
g8
(g9
(I0
tp39
g11
tp40
Rp41
(I1
(I3
I3
tp42
g18
I00
S'\x9b\xe8-"\x02~T@\xfe\xa0\xc0\xf4<TB@\xb8\xcd\x81\xcbdTR\xc0\xfe\xa0\xc0\xf4<TB@C\xfc\xe0\xc8Qx0@|+\x10\x83-x@\xc0\xb8\xcd\x81\xcbdTR\xc0|+\x10\x83-x@\xc0Y\xdb\xcfGqxP@'
p43
tp44
bsS'njev'
p45
I14
sS'nit'
p46
I35
stp47
Rp48
.