ccopy_reg
_reconstructor
p0
(cscipy.optimize.optimize
OptimizeResult
p1
c__builtin__
dict
p2
(dp3
S'nfev'
p4
I1259
sS'success'
p5
I01
sS'fun'
p6
cnumpy.core.multiarray
scalar
p7
(cnumpy
dtype
p8
(S'f8'
p9
I0
I1
tp10
Rp11
(I3
S'<'
p12
NNNI-1
I-1
I0
tp13
bS'\x82\x8c\xd8\x0f\xc9n\xdb?'
p14
tp15
Rp16
sS'x'
p17
cnumpy.core.multiarray
_reconstruct
p18
(cnumpy
ndarray
p19
(I0
tp20
S'b'
p21
tp22
Rp23
(I1
(I3
tp24
g11
I00
S'\x90\xdf\xc9\xa8\xda/\xf5\xbf\\g\xe0f\xb6\x84\x18@t\x14\x18\x061,\x0b@'
p25
tp26
bsS'message'
p27
S'Optimization terminated successfully.'
p28
sS'nit'
p29
I22
stp30
Rp31
.