ccopy_reg
_reconstructor
p0
(cscipy.optimize.optimize
OptimizeResult
p1
c__builtin__
dict
p2
(dp3
S'status'
p4
I2
sS'success'
p5
I00
sS'jac'
p6
cnumpy.core.multiarray
_reconstruct
p7
(cnumpy
ndarray
p8
(I0
tp9
S'b'
p10
tp11
Rp12
(I1
(I3
tp13
cnumpy
dtype
p14
(S'f8'
p15
I0
I1
tp16
Rp17
(I3
S'<'
p18
NNNI-1
I-1
I0
tp19
bI00
S'\xe6\xce\xeb\xbc\xb9\xfe5\xbf\xb3\xdc\xf3\x86-\x01\x1f?\x17L\xf1\xa3\xfd\x1f$\xbf'
p20
tp21
bsS'nfev'
p22
I40
sS'fun'
p23
F0.4286242378998364
sS'x'
p24
g7
(g8
(I0
tp25
g10
tp26
Rp27
(I1
(I3
tp28
g17
I00
S'\xbeG\xcf\x1a\xe2W\xf5\xbf\xb6\x8d\x96\xd5\x9dJ\x18@2\xc6C%\xdd\xdb\n@'
p29
tp30
bsS'message'
p31
S'Desired error not necessarily achieved due to precision loss.'
p32
sS'nhev'
p33
I14
sS'njev'
p34
I41
stp35
Rp36
.