ccopy_reg
_reconstructor
p0
(cscipy.optimize.optimize
OptimizeResult
p1
c__builtin__
dict
p2
(dp3
S'status'
p4
I2
sS'success'
p5
I00
sS'jac'
p6
cnumpy.core.multiarray
_reconstruct
p7
(cnumpy
ndarray
p8
(I0
tp9
S'b'
p10
tp11
Rp12
(I1
(I3
tp13
cnumpy
dtype
p14
(S'f8'
p15
I0
I1
tp16
Rp17
(I3
S'<'
p18
NNNI-1
I-1
I0
tp19
bI00
S'"v\x1f\x1d\xde\x7f\x0b\xbf\xe8\xa8\xa8\x80\xe3\xae\x04\xbf\xe0`q\x14o?\x13?'
p20
tp21
bsS'nfev'
p22
I46
sS'fun'
p23
F0.42862199913418075
sS'x'
p24
g7
(g8
(I0
tp25
g10
tp26
Rp27
(I1
(I3
tp28
g17
I00
S'm\xa6\xd7\xfa>P\xf5\xbf\xc0\xeb\x06\xa9\xda\xae!@|\xbex\x80\x98\xf9\x12@'
p29
tp30
bsS'message'
p31
S'Desired error not necessarily achieved due to precision loss.'
p32
sS'nhev'
p33
I23
sS'njev'
p34
I57
stp35
Rp36
.