ccopy_reg
_reconstructor
p0
(cscipy.optimize.optimize
OptimizeResult
p1
c__builtin__
dict
p2
(dp3
S'status'
p4
I2
sS'nhev'
p5
I11
sS'success'
p6
I00
sS'jac'
p7
cnumpy.core.multiarray
_reconstruct
p8
(cnumpy
ndarray
p9
(I0
tp10
S'b'
p11
tp12
Rp13
(I1
(I3
tp14
cnumpy
dtype
p15
(S'f8'
p16
I0
I1
tp17
Rp18
(I3
S'<'
p19
NNNI-1
I-1
I0
tp20
bI00
S'\xbe\xc3\x0f\xe1\xdds_\xbf\xc7g\xf0\x1a\x0e\x04L\xbf\x85{+\xb7\x86y\\?'
p21
tp22
bsS'nfev'
p23
I36
sS'fun'
p24
cnumpy.core.multiarray
scalar
p25
(g18
S'\x10\xbe\x0c&\x89n\xdb?'
p26
tp27
Rp28
sS'x'
p29
g8
(g9
(I0
tp30
g11
tp31
Rp32
(I1
(I3
tp33
g18
I00
S'\xa6\xc3\x959\x01R\xf5\xbf\x0fZ<\xccx\x80!@\xa6\xc5\x02\x11\xc0\xca\x12@'
p34
tp35
bsS'message'
p36
S'A bad approximation caused failure to predict improvement.'
p37
sS'hess'
p38
g8
(g9
(I0
tp39
g11
tp40
Rp41
(I1
(I3
I3
tp42
g18
I00
S'\x7f^\xbc\x92\xdd}T@iVLe\xb6SB@Y\x98u\xde\x96SR\xc0iVLe\xb6SB@\x111\x91\xd7\x1ew0@\x04\xab`%Hw@\xc0Y\x98u\xde\x96SR\xc0\x04\xab`%Hw@\xc0\x84\x1di\xf2YwP@'
p43
tp44
bsS'njev'
p45
I11
sS'nit'
p46
I34
stp47
Rp48
.