ccopy_reg
_reconstructor
p0
(cscipy.optimize.optimize
OptimizeResult
p1
c__builtin__
dict
p2
(dp3
S'status'
p4
I2
sS'nhev'
p5
I5
sS'success'
p6
I00
sS'jac'
p7
cnumpy.core.multiarray
_reconstruct
p8
(cnumpy
ndarray
p9
(I0
tp10
S'b'
p11
tp12
Rp13
(I1
(I3
tp14
cnumpy
dtype
p15
(S'f8'
p16
I0
I1
tp17
Rp18
(I3
S'<'
p19
NNNI-1
I-1
I0
tp20
bI00
S'D\xc8\xfe`\xb5\xb3K@\xd1\xa0o(Lx;@>\xd4 5\x05\xd1{@'
p21
tp22
bsS'nfev'
p23
I38
sS'fun'
p24
cnumpy.core.multiarray
scalar
p25
(g18
S'.m&(\xde\x81,@'
p26
tp27
Rp28
sS'x'
p29
g8
(g9
(I0
tp30
g11
tp31
Rp32
(I1
(I3
tp33
g18
I00
S'\xfe\xc5\xe4B\xda\x90\xcd?\x95\xe4N\x9eb\\"@\x04Gl\xe4k\xff\x17@'
p34
tp35
bsS'message'
p36
S'A bad approximation caused failure to predict improvement.'
p37
sS'hess'
p38
g8
(g9
(I0
tp39
g11
tp40
Rp41
(I1
(I3
I3
tp42
g18
I00
S'U\x14\x07\xe3j\xaaY@\x8b\xa7\xb8m2\x83I@\x10\x94Nz\x13\x82Y\xc0\x8b\xa7\xb8m2\x83I@7 \x14\x1b\xeb\x1c9@n\xd7g\x99\xf5\x17I\xc0\x10\x94Nz\x13\x82Y\xc0n\xd7g\x99\xf5\x17I\xc0PL\xc9i\xbc v\xc0'
p43
tp44
bsS'njev'
p45
I5
sS'nit'
p46
I36
stp47
Rp48
.