ccopy_reg
_reconstructor
p0
(cscipy.optimize.optimize
OptimizeResult
p1
c__builtin__
dict
p2
(dp3
S'status'
p4
I2
sS'success'
p5
I00
sS'jac'
p6
cnumpy.core.multiarray
_reconstruct
p7
(cnumpy
ndarray
p8
(I0
tp9
S'b'
p10
tp11
Rp12
(I1
(I3
tp13
cnumpy
dtype
p14
(S'f8'
p15
I0
I1
tp16
Rp17
(I3
S'<'
p18
NNNI-1
I-1
I0
tp19
bI00
S"9\xd0B\xcd*\x16\x05?\x94\x7f'E\xd0M\x10?A\xeb?\xb8\x94E\x11\xbf"
p20
tp21
bsS'nfev'
p22
I104
sS'fun'
p23
F0.4286213397333206
sS'x'
p24
g7
(g8
(I0
tp25
g10
tp26
Rp27
(I1
(I3
tp28
g17
I00
S'\xb2\xd36\x81\xc9Q\xf5\xbfm\xf6\x06\xd6\xfe\xd1 @\xb6oaoN\x1c\x12@'
p29
tp30
bsS'message'
p31
S'Desired error not necessarily achieved due to precision loss.'
p32
sS'njev'
p33
I93
stp34
Rp35
.