ccopy_reg
_reconstructor
p0
(cscipy.optimize.optimize
OptimizeResult
p1
c__builtin__
dict
p2
(dp3
S'status'
p4
I2
sS'success'
p5
I01
sS'nfev'
p6
I74
sS'fun'
p7
cnumpy.core.multiarray
scalar
p8
(cnumpy
dtype
p9
(S'f8'
p10
I0
I1
tp11
Rp12
(I3
S'<'
p13
NNNI-1
I-1
I0
tp14
bS'.\x00\xdd\x1a4o\xdb?'
p15
tp16
Rp17
sS'x'
p18
cnumpy.core.multiarray
_reconstruct
p19
(cnumpy
ndarray
p20
(I0
tp21
S'b'
p22
tp23
Rp24
(I1
(I3
tp25
g12
I00
S'\t_\x84\x04\x8b%\xf5\xbf\xb3@\xe5\xca\xb4\x82 @\xc8\xae"6\x19\xda\x11@'
p26
tp27
bsS'message'
p28
S'Converged (|x_n-x_(n-1)| ~= 0)'
p29
sS'jac'
p30
g19
(g20
(I0
tp31
g22
tp32
Rp33
(I1
(I3
tp34
g12
I00
S'\x02S\x99\x8f\xef\xbb\xaa\xbf\xcc\xed\xa3Z\xd9\xde\x99\xbf\x0f\x94\xd5\x90\xbe\xe0\xa9?'
p35
tp36
bsS'nit'
p37
I13
stp38
Rp39
.