ccopy_reg
_reconstructor
p0
(cscipy.optimize.optimize
OptimizeResult
p1
c__builtin__
dict
p2
(dp3
S'status'
p4
I2
sS'nhev'
p5
I17
sS'success'
p6
I00
sS'jac'
p7
cnumpy.core.multiarray
_reconstruct
p8
(cnumpy
ndarray
p9
(I0
tp10
S'b'
p11
tp12
Rp13
(I1
(I3
tp14
cnumpy
dtype
p15
(S'f8'
p16
I0
I1
tp17
Rp18
(I3
S'<'
p19
NNNI-1
I-1
I0
tp20
bI00
S'\x13q;:i4n\xbfR\xc0K\xfdv\xdbY\xbf\xb9\xd1&\xe6v\xb0i?'
p21
tp22
bsS'nfev'
p23
I43
sS'fun'
p24
cnumpy.core.multiarray
scalar
p25
(g18
S'\xfd\x98\xbb\x8d\x89n\xdb?'
p26
tp27
Rp28
sS'x'
p29
g8
(g9
(I0
tp30
g11
tp31
Rp32
(I1
(I3
tp33
g18
I00
S'\xa7kpQ\x0eR\xf5\xbf\xc1\xc0\xb9\xa9\x12W @\x08\xf3\xabB\\\xa1\x11@'
p34
tp35
bsS'message'
p36
S'A bad approximation caused failure to predict improvement.'
p37
sS'hess'
p38
g8
(g9
(I0
tp39
g11
tp40
Rp41
(I1
(I3
I3
tp42
g18
I00
S'Jb\xa9(\xb8}T@3L+(\xacSB@\xef\x8d\x90w\x9dSR\xc03L+(\xacSB@J\x8en\xb5cw0@\xc2pw\xd4\xf7v@\xc0\xef\x8d\x90w\x9dSR\xc0\xc2pw\xd4\xf7v@\xc0,\x0b\xaf\xfd\x82wP@'
p43
tp44
bsS'njev'
p45
I17
sS'nit'
p46
I41
stp47
Rp48
.