ccopy_reg
_reconstructor
p0
(cscipy.optimize.optimize
OptimizeResult
p1
c__builtin__
dict
p2
(dp3
S'status'
p4
I4
sS'success'
p5
I00
sS'nfev'
p6
I56
sS'fun'
p7
cnumpy.core.multiarray
scalar
p8
(cnumpy
dtype
p9
(S'f8'
p10
I0
I1
tp11
Rp12
(I3
S'<'
p13
NNNI-1
I-1
I0
tp14
bS'-\xc0\xfc\xe5\xf3%\xdd?'
p15
tp16
Rp17
sS'x'
p18
cnumpy.core.multiarray
_reconstruct
p19
(cnumpy
ndarray
p20
(I0
tp21
S'b'
p22
tp23
Rp24
(I1
(I3
tp25
g12
I00
S'e\x881\xb0\xca\xfd\xe4\xbfF\x96\x12Q1\xd8\x19@\x97S\xe1\xe1\xaa\x14\x11@'
p26
tp27
bsS'message'
p28
S'Linear search failed'
p29
sS'jac'
p30
g19
(g20
(I0
tp31
g22
tp32
Rp33
(I1
(I3
tp34
g12
I00
S'\xb6\x976|\x8a\xaa\xa7\xbf\x08\x0eQ\x8d:\xab\xa4\xbf\xe2\xb6\x18b\xda\xa8\xb4?'
p35
tp36
bsS'nit'
p37
I4
stp38
Rp39
.