ccopy_reg
_reconstructor
p0
(cscipy.optimize.optimize
OptimizeResult
p1
c__builtin__
dict
p2
(dp3
S'status'
p4
I0
sS'success'
p5
I01
sS'jac'
p6
cnumpy.core.multiarray
_reconstruct
p7
(cnumpy
ndarray
p8
(I0
tp9
S'b'
p10
tp11
Rp12
(I1
(I3
tp13
cnumpy
dtype
p14
(S'f8'
p15
I0
I1
tp16
Rp17
(I3
S'<'
p18
NNNI-1
I-1
I0
tp19
bI00
S'N\xa9X\x17\x98q)?\x08\xa1\x90\xc5\xb6\x84\x0e?I\x91\xe1\xab*p&?'
p20
tp21
bsS'nfev'
p22
I19
sS'fun'
p23
F0.42862211681309154
sS'x'
p24
g7
(g8
(I0
tp25
g10
tp26
Rp27
(I1
(I3
tp28
g17
I00
S'\x1e\xe9>\xab\xb1M\xf5\xbf\xb8\xf2\xfc\x99\xd8Z!@\x9a\n\x84\xc2L\xa6\x12@'
p29
tp30
bsS'message'
p31
S'Optimization terminated successfully.'
p32
sS'nhev'
p33
I11
sS'njev'
p34
I29
stp35
Rp36
.