ccopy_reg
_reconstructor
p0
(cscipy.optimize.optimize
OptimizeResult
p1
c__builtin__
dict
p2
(dp3
S'status'
p4
I2
sS'success'
p5
I00
sS'jac'
p6
cnumpy.core.multiarray
_reconstruct
p7
(cnumpy
ndarray
p8
(I0
tp9
S'b'
p10
tp11
Rp12
(I1
(I3
tp13
cnumpy
dtype
p14
(S'f8'
p15
I0
I1
tp16
Rp17
(I3
S'<'
p18
NNNI-1
I-1
I0
tp19
bI00
S'\x92a\x9a\x00\x979\x12\xbfzc\xb4E\xd0>\xb6\xbe\xc7?\xfa\xef\xb7\xeb\xee\xbe'
p20
tp21
bsS'nfev'
p22
I62
sS'fun'
p23
F0.4286225312605347
sS'x'
p24
g7
(g8
(I0
tp25
g10
tp26
Rp27
(I1
(I3
tp28
g17
I00
S'R\x15\xe2\xe0\x1fR\xf5\xbf\x86\x08\x9f\xebO\xcc\x1a@-\xe4\xe4$\xc2`\r@'
p29
tp30
bsS'message'
p31
S'Desired error not necessarily achieved due to precision loss.'
p32
sS'nhev'
p33
I42
sS'njev'
p34
I91
stp35
Rp36
.