ccopy_reg
_reconstructor
p0
(cscipy.optimize.optimize
OptimizeResult
p1
c__builtin__
dict
p2
(dp3
S'status'
p4
I2
sS'success'
p5
I01
sS'nfev'
p6
I70
sS'fun'
p7
cnumpy.core.multiarray
scalar
p8
(cnumpy
dtype
p9
(S'f8'
p10
I0
I1
tp11
Rp12
(I3
S'<'
p13
NNNI-1
I-1
I0
tp14
bS'\x8aV\xef\x9f\xde\xcf\xdb?'
p15
tp16
Rp17
sS'x'
p18
cnumpy.core.multiarray
_reconstruct
p19
(cnumpy
ndarray
p20
(I0
tp21
S'b'
p22
tp23
Rp24
(I1
(I3
tp25
g12
I00
S'[\xaa\x95\x12\xb0\xf2\xf2\xbf5\x81\xc3\xca\xa0\xc7\x19@\xb7\x84\x19\xabc\xbb\r@'
p26
tp27
bsS'message'
p28
S'Converged (|x_n-x_(n-1)| ~= 0)'
p29
sS'jac'
p30
g19
(g20
(I0
tp31
g22
tp32
Rp33
(I1
(I3
tp34
g12
I00
S'}\x7fb\xed\x85\x0e\xe4\xbfT$+\x8dn\xac\xd3\xbf\xb9p\xa8\xfd\xe5\xaa\xe3?'
p35
tp36
bsS'nit'
p37
I7
stp38
Rp39
.