ccopy_reg
_reconstructor
p0
(cscipy.optimize.optimize
OptimizeResult
p1
c__builtin__
dict
p2
(dp3
S'status'
p4
I2
sS'nhev'
p5
I19
sS'success'
p6
I00
sS'jac'
p7
cnumpy.core.multiarray
_reconstruct
p8
(cnumpy
ndarray
p9
(I0
tp10
S'b'
p11
tp12
Rp13
(I1
(I3
tp14
cnumpy
dtype
p15
(S'f8'
p16
I0
I1
tp17
Rp18
(I3
S'<'
p19
NNNI-1
I-1
I0
tp20
bI00
S'x\xcdx\xdeOi\x16?\x97\xf8?:\xc4\x8c\x06?tn\xe31}\xd6\x11\xbf'
p21
tp22
bsS'nfev'
p23
I42
sS'fun'
p24
cnumpy.core.multiarray
scalar
p25
(g18
S'\xe63z\xa4\x8dn\xdb?'
p26
tp27
Rp28
sS'x'
p29
g8
(g9
(I0
tp30
g11
tp31
Rp32
(I1
(I3
tp33
g18
I00
S'\xca\xf9\x97>\x1fQ\xf5\xbf\\\xde\xfd\xcfp\x97\x19@\t\xf3B\x08s,\x0c@'
p34
tp35
bsS'message'
p36
S'A bad approximation caused failure to predict improvement.'
p37
sS'hess'
p38
g8
(g9
(I0
tp39
g11
tp40
Rp41
(I1
(I3
I3
tp42
g18
I00
S'H\xecv\xab\x13~T@0\x036\x05\xdcSB@y&\x04\x12!TR\xc00\x036\x05\xdcSB@\xfe\xf5O\x04\x84w0@\xbe\x86_\xe0\x99w@\xc0y&\x04\x12!TR\xc0\xbe\x86_\xe0\x99w@\xc0}\xd5\x06\xfc\xbcwP@'
p43
tp44
bsS'njev'
p45
I19
sS'nit'
p46
I40
stp47
Rp48
.