ccopy_reg
_reconstructor
p0
(cscipy.optimize.optimize
OptimizeResult
p1
c__builtin__
dict
p2
(dp3
S'status'
p4
I2
sS'nhev'
p5
I12
sS'success'
p6
I00
sS'jac'
p7
cnumpy.core.multiarray
_reconstruct
p8
(cnumpy
ndarray
p9
(I0
tp10
S'b'
p11
tp12
Rp13
(I1
(I3
tp14
cnumpy
dtype
p15
(S'f8'
p16
I0
I1
tp17
Rp18
(I3
S'<'
p19
NNNI-1
I-1
I0
tp20
bI00
S'\x00#%\x8f!m \xbf\x19\xf9\xaeO\x90H\xff\xbe{\xcd\x10 \xa3\x12\x14?'
p21
tp22
bsS'nfev'
p23
I37
sS'fun'
p24
cnumpy.core.multiarray
scalar
p25
(g18
S'}|\x82B\x8fn\xdb?'
p26
tp27
Rp28
sS'x'
p29
g8
(g9
(I0
tp30
g11
tp31
Rp32
(I1
(I3
tp33
g18
I00
S'.q\x1e\x92\x0eR\xf5\xbf:\xc1\xdf\xc4\x08\x83\x18@\x9c^G\x11\x88\x17\x0b@'
p34
tp35
bsS'message'
p36
S'A bad approximation caused failure to predict improvement.'
p37
sS'hess'
p38
g8
(g9
(I0
tp39
g11
tp40
Rp41
(I1
(I3
I3
tp42
g18
I00
S'c\xa3\xa9-\xf4}T@G\xcc$B\x8aSB@_\xe2\x03\xa1\xc6SR\xc0G\xcc$B\x8aSB@\xa7\xcf\x82\x04fw0@\x894&\xaf\xfbv@\xc0_\xe2\x03\xa1\xc6SR\xc0\x894&\xaf\xfbv@\xc0\nP;yiwP@'
p43
tp44
bsS'njev'
p45
I12
sS'nit'
p46
I35
stp47
Rp48
.