ccopy_reg
_reconstructor
p0
(cscipy.optimize.optimize
OptimizeResult
p1
c__builtin__
dict
p2
(dp3
S'status'
p4
I2
sS'success'
p5
I01
sS'nfev'
p6
I32
sS'fun'
p7
cnumpy.core.multiarray
scalar
p8
(cnumpy
dtype
p9
(S'f8'
p10
I0
I1
tp11
Rp12
(I3
S'<'
p13
NNNI-1
I-1
I0
tp14
bS'~\xf4\x08\x1c\x0e\xa3\xdb?'
p15
tp16
Rp17
sS'x'
p18
cnumpy.core.multiarray
_reconstruct
p19
(cnumpy
ndarray
p20
(I0
tp21
S'b'
p22
tp23
Rp24
(I1
(I3
tp25
g12
I00
S'\xf9\x88\xf2\x9c#\xf8\xf2\xbf\xc9O "\x1b\x88"@\xc3\xb2\x98\xf2\x9cu\x14@'
p26
tp27
bsS'message'
p28
S'Converged (|x_n-x_(n-1)| ~= 0)'
p29
sS'jac'
p30
g19
(g20
(I0
tp31
g22
tp32
Rp33
(I1
(I3
tp34
g12
I00
S'\xd8\xa1\xae+\xfer\xc4?\xd1\x8c\x1c\xef]\x11\xad?#\x92\xac\xd9\xc4\x18\xbd\xbf'
p35
tp36
bsS'nit'
p37
I5
stp38
Rp39
.