ccopy_reg
_reconstructor
p0
(cscipy.optimize.optimize
OptimizeResult
p1
c__builtin__
dict
p2
(dp3
S'status'
p4
I0
sS'success'
p5
I01
sS'nfev'
p6
I24
sS'fun'
p7
cnumpy.core.multiarray
scalar
p8
(cnumpy
dtype
p9
(S'f8'
p10
I0
I1
tp11
Rp12
(I3
S'<'
p13
NNNI-1
I-1
I0
tp14
bS'\xba(\xfce\x90n\xdb?'
p15
tp16
Rp17
sS'x'
p18
cnumpy.core.multiarray
_reconstruct
p19
(cnumpy
ndarray
p20
(I0
tp21
S'b'
p22
tp23
Rp24
(I1
(I3
tp25
g12
I00
S'\xdeo\x9e\xf6-R\xf5\xbfX\xf3\xdcu\xd8\x97\x19@\xe7K\xf0\x1eD,\x0c@'
p26
tp27
bsS'message'
p28
S'CONVERGENCE: NORM_OF_PROJECTED_GRADIENT_<=_PGTOL'
p29
sS'jac'
p30
g19
(g20
(I0
tp31
g22
tp32
Rp33
(I1
(I3
tp34
g12
I00
S'\x80\x01*\n\xd5(\xcf>\x14\xb7\xd2\x01\xe0\xcd\xd0>\xc8\xce;\x07\x0e\xea\xe4>'
p35
tp36
bsS'nit'
p37
I18
stp38
Rp39
.