ccopy_reg
_reconstructor
p0
(cscipy.optimize.optimize
OptimizeResult
p1
c__builtin__
dict
p2
(dp3
S'status'
p4
I3
sS'nhev'
p5
I1
sS'success'
p6
I00
sS'jac'
p7
cnumpy.core.multiarray
_reconstruct
p8
(cnumpy
ndarray
p9
(I0
tp10
S'b'
p11
tp12
Rp13
(I1
(I3
tp14
cnumpy
dtype
p15
(S'f8'
p16
I0
I1
tp17
Rp18
(I3
S'<'
p19
NNNI-1
I-1
I0
tp20
bI00
S'\xcd\x1a\xa0d&\x062@q=\xf7"\xdc\xea\x10@M\x0c\x9a\xc4\xed\xe5 \xc0'
p21
tp22
bsS'nfev'
p23
I1
sS'fun'
p24
cnumpy.core.multiarray
scalar
p25
(g18
S'J\xa1\x11\xd6\xd3GS@'
p26
tp27
Rp28
sS'x'
p29
g8
(g9
(I0
tp30
g11
tp31
Rp32
(I1
(I3
tp33
g18
I00
S'(8#\xd6(*\xde\xbf\x0e\xa7\x0b\xf8\xd8d\x18@\x88\xe3M\x17\xcfp\x02@'
p34
tp35
bsS'message'
p36
S'A linalg error occurred, such as a non-psd Hessian.'
p37
sS'hess'
p38
g8
(g9
(I0
tp39
g11
tp40
Rp41
(I1
(I3
I3
tp42
g18
I00
S'{P\xd0X\xaf\x86F\xc0,\x14\xe6wKB)\xc0,\x84/\xe1$C9@,\x14\xe6wKB)\xc0\xb4\xbd\xd3\xffN]\x18\xc0E\x14\xea\xc5~U(@,\x84/\xe1$C9@E\x14\xea\xc5~U(@\xef\xa5]\xc4\x8eO8\xc0'
p43
tp44
bsS'njev'
p45
I1
sS'nit'
p46
I0
stp47
Rp48
.