ccopy_reg
_reconstructor
p0
(cscipy.optimize.optimize
OptimizeResult
p1
c__builtin__
dict
p2
(dp3
S'status'
p4
I0
sS'success'
p5
I01
sS'jac'
p6
cnumpy.core.multiarray
_reconstruct
p7
(cnumpy
ndarray
p8
(I0
tp9
S'b'
p10
tp11
Rp12
(I1
(I3
tp13
cnumpy
dtype
p14
(S'f8'
p15
I0
I1
tp16
Rp17
(I3
S'<'
p18
NNNI-1
I-1
I0
tp19
bI00
S'\xf0\x92\xe5\xc8OG0?\xb0m\xb6\xb3T3\xfa>\xa8\x8ex\xec\x14\xde\xfc>'
p20
tp21
bsS'nfev'
p22
I54
sS'fun'
p23
cnumpy.core.multiarray
scalar
p24
(g17
S'\xd09\x9d\xd2\x96n\xdb?'
p25
tp26
Rp27
sS'x'
p28
g7
(g8
(I0
tp29
g10
tp30
Rp31
(I1
(I3
tp32
g17
I00
S'\xae\xff\xff\xcc\xe3P\xf5\xbf\x91\xb9\x84gv\x1b\x17@$\xd5\xda\xda\x9d\xb0\t@'
p33
tp34
bsS'message'
p35
S'Optimization terminated successfully.'
p36
sS'nhev'
p37
I15
sS'njev'
p38
I52
stp39
Rp40
.