ccopy_reg
_reconstructor
p0
(cscipy.optimize.optimize
OptimizeResult
p1
c__builtin__
dict
p2
(dp3
S'status'
p4
I0
sS'success'
p5
I01
sS'jac'
p6
cnumpy.core.multiarray
_reconstruct
p7
(cnumpy
ndarray
p8
(I0
tp9
S'b'
p10
tp11
Rp12
(I1
(I3
tp13
cnumpy
dtype
p14
(S'f8'
p15
I0
I1
tp16
Rp17
(I3
S'<'
p18
NNNI-1
I-1
I0
tp19
bI00
S'4\x9bM$\xd9\xecZ\xbfp\xb0\x08\x87\x85\tG\xbf\x99\xcd\x00\x18\xc32W?'
p20
tp21
bsS'nfev'
p22
I68
sS'fun'
p23
F0.4286222168099271
sS'x'
p24
g7
(g8
(I0
tp25
g10
tp26
Rp27
(I1
(I3
tp28
g17
I00
S'\x14\xc5\xd8\xa8?Q\xf5\xbf/\xedtX\xc1\xc3 @\xc3"\xb8\x81:\x0e\x12@'
p29
tp30
bsS'message'
p31
S'Optimization terminated successfully.'
p32
sS'nhev'
p33
I48
sS'njev'
p34
I115
stp35
Rp36
.