ccopy_reg
_reconstructor
p0
(cscipy.optimize.optimize
OptimizeResult
p1
c__builtin__
dict
p2
(dp3
S'status'
p4
I2
sS'success'
p5
I00
sS'jac'
p6
cnumpy.core.multiarray
_reconstruct
p7
(cnumpy
ndarray
p8
(I0
tp9
S'b'
p10
tp11
Rp12
(I1
(I3
tp13
cnumpy
dtype
p14
(S'f8'
p15
I0
I1
tp16
Rp17
(I3
S'<'
p18
NNNI-1
I-1
I0
tp19
bI00
S"^^\xee\xbd\x96\xb4Q?\xed\x90\xb2\xa7=\x86'?k@\x0c\xe5x\x976\xbf"
p20
tp21
bsS'nfev'
p22
I57
sS'fun'
p23
F0.42862430516193173
sS'x'
p24
g7
(g8
(I0
tp25
g10
tp26
Rp27
(I1
(I3
tp28
g17
I00
S'0\xdf\xc1\x94RI\xf5\xbf\xaaFx\x0c\xb37\x19@\x8b\xed\x035\n\xd1\x0b@'
p29
tp30
bsS'message'
p31
S'Desired error not necessarily achieved due to precision loss.'
p32
sS'njev'
p33
I45
stp34
Rp35
.