ccopy_reg
_reconstructor
p0
(cscipy.optimize.optimize
OptimizeResult
p1
c__builtin__
dict
p2
(dp3
S'status'
p4
I2
sS'success'
p5
I00
sS'jac'
p6
cnumpy.core.multiarray
_reconstruct
p7
(cnumpy
ndarray
p8
(I0
tp9
S'b'
p10
tp11
Rp12
(I1
(I3
tp13
cnumpy
dtype
p14
(S'f8'
p15
I0
I1
tp16
Rp17
(I3
S'<'
p18
NNNI-1
I-1
I0
tp19
bI00
S'\x02\xeb\x9c\xb6\xdf\x81\x1e\xbf2\x9f\xb3\x9a\xef;\x12?\xb7>3\xf6C\x08$\xbf'
p20
tp21
bsS'nfev'
p22
I245
sS'fun'
p23
cnumpy.core.multiarray
scalar
p24
(g17
S'\xc4\xebde\x8an\xdb?'
p25
tp26
Rp27
sS'x'
p28
g7
(g8
(I0
tp29
g10
tp30
Rp31
(I1
(I3
tp32
g17
I00
S'\xd5\xc4\xc1\xef\xbfT\xf5\xbf\x94\xa0\xa7-t5"@\xc9gAl\xf0~\x13@'
p33
tp34
bsS'message'
p35
S'Desired error not necessarily achieved due to precision loss.'
p36
sS'nhev'
p37
I200
sS'njev'
p38
I427
stp39
Rp40
.