ccopy_reg
_reconstructor
p0
(cscipy.optimize.optimize
OptimizeResult
p1
c__builtin__
dict
p2
(dp3
S'status'
p4
I2
sS'nhev'
p5
I25
sS'success'
p6
I00
sS'jac'
p7
cnumpy.core.multiarray
_reconstruct
p8
(cnumpy
ndarray
p9
(I0
tp10
S'b'
p11
tp12
Rp13
(I1
(I3
tp14
cnumpy
dtype
p15
(S'f8'
p16
I0
I1
tp17
Rp18
(I3
S'<'
p19
NNNI-1
I-1
I0
tp20
bI00
S'\x97\xa8\x12e\xff\r)?\xce\xe9\x07{\xd8\xfb\x07\xbf\x84\xe3\xf4\xe1S\x9c\xe2>'
p21
tp22
bsS'nfev'
p23
I51
sS'fun'
p24
cnumpy.core.multiarray
scalar
p25
(g18
S'd"\xf8\xb9\x89n\xdb?'
p26
tp27
Rp28
sS'x'
p29
g8
(g9
(I0
tp30
g11
tp31
Rp32
(I1
(I3
tp33
g18
I00
S'\xe9H\xeb\xd4\x00O\xf5\xbf\x9a,\xda\xb8N]\x1d@|\xc7\r\r}\xf3\x0f@'
p34
tp35
bsS'message'
p36
S'A bad approximation caused failure to predict improvement.'
p37
sS'hess'
p38
g8
(g9
(I0
tp39
g11
tp40
Rp41
(I1
(I3
I3
tp42
g18
I00
S"\xac'\xde\x92\xd3}T@<\xf2a(;TB@\xe3s\xb7yrTR\xc0<\xf2a(;TB@\xa8\x17\xacbpx0@LhQ\xc6\xdfx@\xc0\xe3s\xb7yrTR\xc0LhQ\xc6\xdfx@\xc0\xd3G\xc3\x1a\xe8xP@"
p43
tp44
bsS'njev'
p45
I25
sS'nit'
p46
I49
stp47
Rp48
.