ccopy_reg
_reconstructor
p0
(cscipy.optimize.optimize
OptimizeResult
p1
c__builtin__
dict
p2
(dp3
S'status'
p4
I4
sS'success'
p5
I00
sS'nfev'
p6
I85
sS'fun'
p7
cnumpy.core.multiarray
scalar
p8
(cnumpy
dtype
p9
(S'f8'
p10
I0
I1
tp11
Rp12
(I3
S'<'
p13
NNNI-1
I-1
I0
tp14
bS'\xcf\xce\x15S3\xdf\xeb?'
p15
tp16
Rp17
sS'x'
p18
cnumpy.core.multiarray
_reconstruct
p19
(cnumpy
ndarray
p20
(I0
tp21
S'b'
p22
tp23
Rp24
(I1
(I3
tp25
g12
I00
S'\xf0\xc2\xef\xe7\xc2m\x00\xc0\xf4L\xc6v\x13W @\xbc\xd5\xfbm\x0c!\x0c@'
p26
tp27
bsS'message'
p28
S'Linear search failed'
p29
sS'jac'
p30
g19
(g20
(I0
tp31
g22
tp32
Rp33
(I1
(I3
tp34
g12
I00
S'\xf4\x12\xbc\xc7\xaa\xbc\x13\xc0LO\xf3<\x1eR\xed\xbf+}\xf6\xf3~Q\xfd?'
p35
tp36
bsS'nit'
p37
I4
stp38
Rp39
.