ccopy_reg
_reconstructor
p0
(cscipy.optimize.optimize
OptimizeResult
p1
c__builtin__
dict
p2
(dp3
S'status'
p4
I2
sS'success'
p5
I00
sS'jac'
p6
cnumpy.core.multiarray
_reconstruct
p7
(cnumpy
ndarray
p8
(I0
tp9
S'b'
p10
tp11
Rp12
(I1
(I3
tp13
cnumpy
dtype
p14
(S'f8'
p15
I0
I1
tp16
Rp17
(I3
S'<'
p18
NNNI-1
I-1
I0
tp19
bI00
S'\xdd!\x99m\xae\r\x17\xc0M\xa3\xd0#\xda\xef\x06\xc0\x18h\xd1\xff\xae\xf0\x16@'
p20
tp21
bsS'nfev'
p22
I15
sS'fun'
p23
F24.539587151864566
sS'x'
p24
g7
(g8
(I0
tp25
g10
tp26
Rp27
(I1
(I3
tp28
g17
I00
S"\xc6\xd3\x9b2\x1c\xc8\xf3\xbf\xe1\xb5\x06\x82\x1b\xbf\x17@\x9eK\xc9\x7f\xc3'\x15@"
p29
tp30
bsS'message'
p31
S'Desired error not necessarily achieved due to precision loss.'
p32
sS'njev'
p33
I3
stp34
Rp35
.