ccopy_reg
_reconstructor
p0
(cscipy.optimize.optimize
OptimizeResult
p1
c__builtin__
dict
p2
(dp3
S'status'
p4
I2
sS'success'
p5
I00
sS'jac'
p6
cnumpy.core.multiarray
_reconstruct
p7
(cnumpy
ndarray
p8
(I0
tp9
S'b'
p10
tp11
Rp12
(I1
(I3
tp13
cnumpy
dtype
p14
(S'f8'
p15
I0
I1
tp16
Rp17
(I3
S'<'
p18
NNNI-1
I-1
I0
tp19
bI00
S'm\x87\x88\x91\r\xa4t?k\xd9SY\x01\x1er\xbf\x8ch\xfb\xa9\xe1F\x82?'
p20
tp21
bsS'nfev'
p22
I94
sS'fun'
p23
F0.46820301361304806
sS'x'
p24
g7
(g8
(I0
tp25
g10
tp26
Rp27
(I1
(I3
tp28
g17
I00
S'\xc3k\xd9\x075\xf3\xbe\xbf7\x98\xaf\x95\xc3\xa2\x1c@\xb9\\Y\xde\xf2\xa4\x14@'
p29
tp30
bsS'message'
p31
S'Desired error not necessarily achieved due to precision loss.'
p32
sS'nhev'
p33
I53
sS'njev'
p34
I137
stp35
Rp36
.