ccopy_reg
_reconstructor
p0
(cscipy.optimize.optimize
OptimizeResult
p1
c__builtin__
dict
p2
(dp3
S'status'
p4
I2
sS'nhev'
p5
I17
sS'success'
p6
I00
sS'jac'
p7
cnumpy.core.multiarray
_reconstruct
p8
(cnumpy
ndarray
p9
(I0
tp10
S'b'
p11
tp12
Rp13
(I1
(I3
tp14
cnumpy
dtype
p15
(S'f8'
p16
I0
I1
tp17
Rp18
(I3
S'<'
p19
NNNI-1
I-1
I0
tp20
bI00
S'`\x05F\x7f\xcc\x15[\xbf\xb7\xd4!P\x9c\xdaD\xbf\x90A\x12;\x14/S?'
p21
tp22
bsS'nfev'
p23
I45
sS'fun'
p24
cnumpy.core.multiarray
scalar
p25
(g18
S'H\x18\xd8\xba\x8bn\xdb?'
p26
tp27
Rp28
sS'x'
p29
g8
(g9
(I0
tp30
g11
tp31
Rp32
(I1
(I3
tp33
g18
I00
S'\x15p\xfbX%T\xf5\xbfT\xccGUu\xd9\x1e@P#\x03\xecg\xb6\x10@'
p34
tp35
bsS'message'
p36
S'A bad approximation caused failure to predict improvement.'
p37
sS'hess'
p38
g8
(g9
(I0
tp39
g11
tp40
Rp41
(I1
(I3
I3
tp42
g18
I00
S'3{-\x90\x86~T@\x17\x84C\xd4JSB@\xa6\x94\xd3ODSR\xc0\x17\x84C\xd4JSB@*x\xea\x1b\x80v0@$\x06`9vv@\xc0\xa6\x94\xd3ODSR\xc0$\x06`9vv@\xc0}W>\xbd\x94vP@'
p43
tp44
bsS'njev'
p45
I17
sS'nit'
p46
I43
stp47
Rp48
.