ccopy_reg
_reconstructor
p0
(cscipy.optimize.optimize
OptimizeResult
p1
c__builtin__
dict
p2
(dp3
S'status'
p4
I1
sS'success'
p5
I01
sS'nfev'
p6
I59
sS'fun'
p7
cnumpy.core.multiarray
scalar
p8
(cnumpy
dtype
p9
(S'f8'
p10
I0
I1
tp11
Rp12
(I3
S'<'
p13
NNNI-1
I-1
I0
tp14
bS'\xa7\x96\xa5v p\xdb?'
p15
tp16
Rp17
sS'x'
p18
cnumpy.core.multiarray
_reconstruct
p19
(cnumpy
ndarray
p20
(I0
tp21
S'b'
p22
tp23
Rp24
(I1
(I3
tp25
g12
I00
S"$\xdd\x17s\xf5'\xf5\xbf\x83Y\x88\xfc\xf2\xe8\x1e@\x1e\x9a\xb6\x81\xfd\xcb\x10@"
p26
tp27
bsS'message'
p28
S'Converged (|f_n-f_(n-1)| ~= 0)'
p29
sS'jac'
p30
g19
(g20
(I0
tp31
g22
tp32
Rp33
(I1
(I3
tp34
g12
I00
S'\xdd\xa9\xbfZ\xe9\xed\xbb\xbf\x00G\x85\xe4\x1a\x04\xaa\xbf\xc2\xf4G\xe0\xb0\x02\xba?'
p35
tp36
bsS'nit'
p37
I11
stp38
Rp39
.