ccopy_reg
_reconstructor
p0
(cscipy.optimize.optimize
OptimizeResult
p1
c__builtin__
dict
p2
(dp3
S'status'
p4
I2
sS'success'
p5
I00
sS'jac'
p6
cnumpy.core.multiarray
_reconstruct
p7
(cnumpy
ndarray
p8
(I0
tp9
S'b'
p10
tp11
Rp12
(I1
(I3
tp13
cnumpy
dtype
p14
(S'f8'
p15
I0
I1
tp16
Rp17
(I3
S'<'
p18
NNNI-1
I-1
I0
tp19
bI00
S')\r\xc2\xe2\xd4p3\xc0\x1d2\xd1\xf9\x0b\xe9\x1f\xc0\xb8\x9d4\x8a\xee\xe9/@'
p20
tp21
bsS'nfev'
p22
I15
sS'fun'
p23
F11.924712258823915
sS'x'
p24
g7
(g8
(I0
tp25
g10
tp26
Rp27
(I1
(I3
tp28
g17
I00
S'\xc13\x05`p\xe9\x00\xc0\xf5pk.\xe7="@\xb4zm\x15\xd6Z\x13@'
p29
tp30
bsS'message'
p31
S'Desired error not necessarily achieved due to precision loss.'
p32
sS'njev'
p33
I3
stp34
Rp35
.