ccopy_reg
_reconstructor
p0
(cscipy.optimize.optimize
OptimizeResult
p1
c__builtin__
dict
p2
(dp3
S'status'
p4
I2
sS'success'
p5
I00
sS'jac'
p6
cnumpy.core.multiarray
_reconstruct
p7
(cnumpy
ndarray
p8
(I0
tp9
S'b'
p10
tp11
Rp12
(I1
(I3
tp13
cnumpy
dtype
p14
(S'f8'
p15
I0
I1
tp16
Rp17
(I3
S'<'
p18
NNNI-1
I-1
I0
tp19
bI00
S'E,b\xf9\xce\x86s\xbf\x08\xc9\x00d\xec\xad_\xbf\xe2\x7f\xc4M\xbd\xc5o?'
p20
tp21
bsS'nfev'
p22
I49
sS'fun'
p23
F0.4286221157270695
sS'x'
p24
g7
(g8
(I0
tp25
g10
tp26
Rp27
(I1
(I3
tp28
g17
I00
S'\xb8\\O\xad\xc4T\xf5\xbf\xfa\xc7(\x01\x91X\x1d@\x8d\xba\xf4\xd7\xa8\xeb\x0f@'
p29
tp30
bsS'message'
p31
S'Desired error not necessarily achieved due to precision loss.'
p32
sS'njev'
p33
I37
stp34
Rp35
.