ccopy_reg
_reconstructor
p0
(cscipy.optimize.optimize
OptimizeResult
p1
c__builtin__
dict
p2
(dp3
S'status'
p4
I0
sS'nhev'
p5
I7
sS'success'
p6
I01
sS'jac'
p7
cnumpy.core.multiarray
_reconstruct
p8
(cnumpy
ndarray
p9
(I0
tp10
S'b'
p11
tp12
Rp13
(I1
(I3
tp14
cnumpy
dtype
p15
(S'f8'
p16
I0
I1
tp17
Rp18
(I3
S'<'
p19
NNNI-1
I-1
I0
tp20
bI00
S'\x86W\x89\xed\x82]\x07\xbf\xa5jok\xe4q\xf7>\xfe\x01\xe3\xa6\x96\xc2\x15\xbf'
p21
tp22
bsS'nfev'
p23
I13
sS'fun'
p24
cnumpy.core.multiarray
scalar
p25
(g18
S'\x1f\xa5\xb3t\x8en\xdb?'
p26
tp27
Rp28
sS'x'
p29
g8
(g9
(I0
tp30
g11
tp31
Rp32
(I1
(I3
tp33
g18
I00
S'\xf5\x7f\x87$\xd8R\xf5\xbf;\x0c{\xdd\xf2\xb0\x19@\xa5\xc8EM\xffD\x0c@'
p34
tp35
bsS'message'
p36
S'Optimization terminated successfully.'
p37
sS'hess'
p38
g8
(g9
(I0
tp39
g11
tp40
Rp41
(I1
(I3
I3
tp42
g18
I00
S'\x9aF\xa8\xba*~T@_}M8rSB@E\xa9\xf6n\x81SR\xc0_}M8rSB@\xfc\xad\x96\xfc)w0@\xe5 \x03[)w@\xc0E\xa9\xf6n\x81SR\xc0\xe5 \x03[)w@\xc0\x8cz\xe6A\twP@'
p43
tp44
bsS'njev'
p45
I8
sS'nit'
p46
I12
stp47
Rp48
.