ccopy_reg
_reconstructor
p0
(cscipy.optimize.optimize
OptimizeResult
p1
c__builtin__
dict
p2
(dp3
S'status'
p4
I2
sS'success'
p5
I00
sS'jac'
p6
cnumpy.core.multiarray
_reconstruct
p7
(cnumpy
ndarray
p8
(I0
tp9
S'b'
p10
tp11
Rp12
(I1
(I3
tp13
cnumpy
dtype
p14
(S'f8'
p15
I0
I1
tp16
Rp17
(I3
S'<'
p18
NNNI-1
I-1
I0
tp19
bI00
S'?(\xec\x07\\#\xf5\xbf`8\xad\xf1\xcd8\xe5\xbfH\x01\x99\x1f28\xf5?'
p20
tp21
bsS'nfev'
p22
I17
sS'fun'
p23
F0.47048461646342826
sS'x'
p24
g7
(g8
(I0
tp25
g10
tp26
Rp27
(I1
(I3
tp28
g17
I00
S'\xe4\xb7\x15\x12\xa8&\xe2\xbf\xfa\xd8\x91\x9b!\xaf\x17@\xde6>\x80sn\x10@'
p29
tp30
bsS'message'
p31
S'Desired error not necessarily achieved due to precision loss.'
p32
sS'njev'
p33
I5
stp34
Rp35
.