ccopy_reg
_reconstructor
p0
(cscipy.optimize.optimize
OptimizeResult
p1
c__builtin__
dict
p2
(dp3
S'status'
p4
I2
sS'nhev'
p5
I17
sS'success'
p6
I00
sS'jac'
p7
cnumpy.core.multiarray
_reconstruct
p8
(cnumpy
ndarray
p9
(I0
tp10
S'b'
p11
tp12
Rp13
(I1
(I3
tp14
cnumpy
dtype
p15
(S'f8'
p16
I0
I1
tp17
Rp18
(I3
S'<'
p19
NNNI-1
I-1
I0
tp20
bI00
S"\x0b'>7\xa7\xbe\x07\xbfKW\xb9o\xca5\xed\xbe>\xd5X\xfay\xbd\x1e\xbf"
p21
tp22
bsS'nfev'
p23
I44
sS'fun'
p24
cnumpy.core.multiarray
scalar
p25
(g18
S'F\xc3\x12\r\x89n\xdb?'
p26
tp27
Rp28
sS'x'
p29
g8
(g9
(I0
tp30
g11
tp31
Rp32
(I1
(I3
tp33
g18
I00
S'\xfc6\x1f\x1fIP\xf5\xbf<\xd9m[\x143"@\xa36\x05I\xcf}\x13@'
p34
tp35
bsS'message'
p36
S'A bad approximation caused failure to predict improvement.'
p37
sS'hess'
p38
g8
(g9
(I0
tp39
g11
tp40
Rp41
(I1
(I3
I3
tp42
g18
I00
S'\x01\xbd-\x86\x08~T@\xe4]\xec\xca\xf4SB@\x9cGf&\x02SR\xc0\xe4]\xec\xca\xf4SB@\x88f\xb5Y2x0@"5\xea\xa7<x@\xc0\x9cGf&\x02SR\xc0"5\xea\xa7<x@\xc0\xe5\xf9\x93;\x19xP@'
p43
tp44
bsS'njev'
p45
I17
sS'nit'
p46
I42
stp47
Rp48
.