ccopy_reg
_reconstructor
p0
(cscipy.optimize.optimize
OptimizeResult
p1
c__builtin__
dict
p2
(dp3
S'status'
p4
I2
sS'nhev'
p5
I12
sS'success'
p6
I00
sS'jac'
p7
cnumpy.core.multiarray
_reconstruct
p8
(cnumpy
ndarray
p9
(I0
tp10
S'b'
p11
tp12
Rp13
(I1
(I3
tp14
cnumpy
dtype
p15
(S'f8'
p16
I0
I1
tp17
Rp18
(I3
S'<'
p19
NNNI-1
I-1
I0
tp20
bI00
S'\xa6\x12{\x01\xbc\xbf\x1f\xbfp\xe8w\x06\x0c&\x15\xbf\xd0\xb1rs\xc0\xdc\n?'
p21
tp22
bsS'nfev'
p23
I36
sS'fun'
p24
cnumpy.core.multiarray
scalar
p25
(g18
S'\xa3\x07?[\x86n\xdb?'
p26
tp27
Rp28
sS'x'
p29
g8
(g9
(I0
tp30
g11
tp31
Rp32
(I1
(I3
tp33
g18
I00
S'_\x04\x8e~XP\xf5\xbf+\x1d\x07\xe3\x94\x7f"@\xdb2\x0c\x18L\xca\x13@'
p34
tp35
bsS'message'
p36
S'A bad approximation caused failure to predict improvement.'
p37
sS'hess'
p38
g8
(g9
(I0
tp39
g11
tp40
Rp41
(I1
(I3
I3
tp42
g18
I00
S'\xc8\xf3\xf7\xf9\xff}T@\xb7!\xec\xad4TB@(\x16+6HTR\xc0\xb7!\xec\xad4TB@\xed\xd4\xc5U%x0@t\x81\xa8d~x@\xc0(\x16+6HTR\xc0t\x81\xa8d~x@\xc0\x9f\xb2\xa1\xa4BxP@'
p43
tp44
bsS'njev'
p45
I12
sS'nit'
p46
I34
stp47
Rp48
.