ccopy_reg
_reconstructor
p0
(cscipy.optimize.optimize
OptimizeResult
p1
c__builtin__
dict
p2
(dp3
S'status'
p4
I1
sS'success'
p5
I01
sS'nfev'
p6
I87
sS'fun'
p7
cnumpy.core.multiarray
scalar
p8
(cnumpy
dtype
p9
(S'f8'
p10
I0
I1
tp11
Rp12
(I3
S'<'
p13
NNNI-1
I-1
I0
tp14
bS'\xd8=\xd8(\xea\xa0\xde?'
p15
tp16
Rp17
sS'x'
p18
cnumpy.core.multiarray
_reconstruct
p19
(cnumpy
ndarray
p20
(I0
tp21
S'b'
p22
tp23
Rp24
(I1
(I3
tp25
g12
I00
S'.\x8c\xbd\xf5F(\xfb\xbf\xa8\x94\xb6$\x0f\\\x17@\xb0\xf2\xfc\xc1F\x7f\x06@'
p26
tp27
bsS'message'
p28
S'Converged (|f_n-f_(n-1)| ~= 0)'
p29
sS'jac'
p30
g19
(g20
(I0
tp31
g22
tp32
Rp33
(I1
(I3
tp34
g12
I00
S',\xe1/\xc9wL\xd6\xbf\xf2\xdd\xa0\x0b&\xc8\x80?\xe2N\x87\xe0\xe2\xa4\x90\xbf'
p35
tp36
bsS'nit'
p37
I9
stp38
Rp39
.