ccopy_reg
_reconstructor
p0
(cscipy.optimize.optimize
OptimizeResult
p1
c__builtin__
dict
p2
(dp3
S'nfev'
p4
I1001
sS'success'
p5
I01
sS'fun'
p6
cnumpy.core.multiarray
scalar
p7
(cnumpy
dtype
p8
(S'f8'
p9
I0
I1
tp10
Rp11
(I3
S'<'
p12
NNNI-1
I-1
I0
tp13
bS'wc\xe1\x89\xcbn\xdb?'
p14
tp15
Rp16
sS'x'
p17
cnumpy.core.multiarray
_reconstruct
p18
(cnumpy
ndarray
p19
(I0
tp20
S'b'
p21
tp22
Rp23
(I1
(I3
tp24
g11
I00
S'gI5\xe3\xdc_\xf5\xbf\xbc\xc7\x08\xf9)O\x1c@1\xc7\xc0\xd3\xb4\xda\x0e@'
p25
tp26
bsS'message'
p27
S'Optimization terminated successfully.'
p28
sS'jac'
p29
g18
(g19
(I0
tp30
g21
tp31
Rp32
(I1
(I3
tp33
g11
I00
S"\x00L\xc1~>_\xb2?\x00\xb0\t]\xcf'\x90\xbf\x00h>\x8f\x9f\x10\xa5\xbf"
p34
tp35
bsS'nit'
p36
I20
stp37
Rp38
.