ccopy_reg
_reconstructor
p0
(cscipy.optimize.optimize
OptimizeResult
p1
c__builtin__
dict
p2
(dp3
S'status'
p4
I2
sS'nhev'
p5
I17
sS'success'
p6
I00
sS'jac'
p7
cnumpy.core.multiarray
_reconstruct
p8
(cnumpy
ndarray
p9
(I0
tp10
S'b'
p11
tp12
Rp13
(I1
(I3
tp14
cnumpy
dtype
p15
(S'f8'
p16
I0
I1
tp17
Rp18
(I3
S'<'
p19
NNNI-1
I-1
I0
tp20
bI00
S"\x16.\x06\xc2<a\x13\xbf\xd5'\xcd\x87x\xa0\x13?*\x13\r.\x1b\xaf\x06?"
p21
tp22
bsS'nfev'
p23
I42
sS'fun'
p24
cnumpy.core.multiarray
scalar
p25
(g18
S'\xa6\x00O\x10\x8bn\xdb?'
p26
tp27
Rp28
sS'x'
p29
g8
(g9
(I0
tp30
g11
tp31
Rp32
(I1
(I3
tp33
g18
I00
S'\xf8a\x7f%\x91R\xf5\xbf\xf4C\x9b\x8aie\x1c@B\xb4\xf3r\x9b\xf9\x0e@'
p34
tp35
bsS'message'
p36
S'A bad approximation caused failure to predict improvement.'
p37
sS'hess'
p38
g8
(g9
(I0
tp39
g11
tp40
Rp41
(I1
(I3
I3
tp42
g18
I00
S'O#$\x97=~T@\xa9C\x18"\xb7SB@Q\xb5\x11s\xb9SR\xc0\xa9C\x18"\xb7SB@1\xbe\x0c5tw0@B0\xd4\x8faw@\xc0Q\xb5\x11s\xb9SR\xc0B0\xd4\x8faw@\xc0\xf3DR\xf2\x89wP@'
p43
tp44
bsS'njev'
p45
I17
sS'nit'
p46
I40
stp47
Rp48
.