ccopy_reg
_reconstructor
p0
(cscipy.optimize.optimize
OptimizeResult
p1
c__builtin__
dict
p2
(dp3
S'status'
p4
I1
sS'success'
p5
I00
sS'jac'
p6
cnumpy.core.multiarray
_reconstruct
p7
(cnumpy
ndarray
p8
(I0
tp9
S'b'
p10
tp11
Rp12
(I1
(I3
tp13
cnumpy
dtype
p14
(S'f8'
p15
I0
I1
tp16
Rp17
(I3
S'<'
p18
NNNI-1
I-1
I0
tp19
bI00
S'\xfa\xda!\xc7-\xff\xac?{\x04X\xc3\xc6{s?\xafbeD\x9c\xa4\x83\xbf'
p20
tp21
bsS'nfev'
p22
I601
sS'fun'
p23
F0.4462466890084226
sS'x'
p24
g7
(g8
(I0
tp25
g10
tp26
Rp27
(I1
(I3
tp28
g17
I00
S'Xp\xf9x\xfc\xf4\xeb\xbf\xe6\xba\x1c\xd8u\xcd\x1b@\xa5\xf5\x86\xc0\x99(\x11@'
p29
tp30
bsS'message'
p31
S'Maximum number of iterations has been exceeded.'
p32
sS'nhev'
p33
I600
sS'njev'
p34
I1200
stp35
Rp36
.