ccopy_reg
_reconstructor
p0
(cscipy.optimize.optimize
OptimizeResult
p1
c__builtin__
dict
p2
(dp3
S'status'
p4
I3
sS'nhev'
p5
I1
sS'success'
p6
I00
sS'jac'
p7
cnumpy.core.multiarray
_reconstruct
p8
(cnumpy
ndarray
p9
(I0
tp10
S'b'
p11
tp12
Rp13
(I1
(I3
tp14
cnumpy
dtype
p15
(S'f8'
p16
I0
I1
tp17
Rp18
(I3
S'<'
p19
NNNI-1
I-1
I0
tp20
bI00
S's\x9b\xdahJO>@\x12<\xe4\xf0JS-@vw\xde7bS=\xc0'
p21
tp22
bsS'nfev'
p23
I1
sS'fun'
p24
cnumpy.core.multiarray
scalar
p25
(g18
S'\x1a\xd5\x08\xe9a\xb9\x12@'
p26
tp27
Rp28
sS'x'
p29
g8
(g9
(I0
tp30
g11
tp31
Rp32
(I1
(I3
tp33
g18
I00
S'\x9c\xadd&\x86\x94\xe1\xbf\x92D\xdd\x85yK\x1d@\xdc+\xc5C\xb9\x02\x12@'
p34
tp35
bsS'message'
p36
S'A linalg error occurred, such as a non-psd Hessian.'
p37
sS'hess'
p38
g8
(g9
(I0
tp39
g11
tp40
Rp41
(I1
(I3
I3
tp42
g18
I00
S"C\xf4\x191H[]@\xbc@\xaf\x1f\n\x92L@\xe52\x94\xec0\x90\\\xc0\xbc@\xaf\x1f\n\x92L@\xfdrI\x93cG;@'I\xbe\t\x0eHK\xc0\xe52\x94\xec0\x90\\\xc0'I\xbe\t\x0eHK\xc0b\xfc\x93\x91\x99I[@"
p43
tp44
bsS'njev'
p45
I1
sS'nit'
p46
I0
stp47
Rp48
.