ccopy_reg
_reconstructor
p0
(cscipy.optimize.optimize
OptimizeResult
p1
c__builtin__
dict
p2
(dp3
S'nfev'
p4
I1074
sS'success'
p5
I01
sS'fun'
p6
cnumpy.core.multiarray
scalar
p7
(cnumpy
dtype
p8
(S'f8'
p9
I0
I1
tp10
Rp11
(I3
S'<'
p12
NNNI-1
I-1
I0
tp13
bS'S\xd3\x0bP\xcbn\xdb?'
p14
tp15
Rp16
sS'x'
p17
cnumpy.core.multiarray
_reconstruct
p18
(cnumpy
ndarray
p19
(I0
tp20
S'b'
p21
tp22
Rp23
(I1
(I3
tp24
g11
I00
S'\xba\xbe\x7f\xd1Jg\xf5\xbf\xb3\xe1I\xb9V\xa3\x17@\xca<\x01\xe9\x0b+\n@'
p25
tp26
bsS'message'
p27
S'Optimization terminated successfully.'
p28
sS'jac'
p29
g18
(g19
(I0
tp30
g21
tp31
Rp32
(I1
(I3
tp33
g11
I00
S'\x98\xf0\x18d\x8eu4\xc0(\xd5\xb3\xe8\x97\xc5"\xc0\x10\xe7\xa2rm{\x1e@'
p34
tp35
bsS'nit'
p36
I21
stp37
Rp38
.