ccopy_reg
_reconstructor
p0
(cscipy.optimize.optimize
OptimizeResult
p1
c__builtin__
dict
p2
(dp3
S'status'
p4
I2
sS'success'
p5
I00
sS'jac'
p6
cnumpy.core.multiarray
_reconstruct
p7
(cnumpy
ndarray
p8
(I0
tp9
S'b'
p10
tp11
Rp12
(I1
(I3
tp13
cnumpy
dtype
p14
(S'f8'
p15
I0
I1
tp16
Rp17
(I3
S'<'
p18
NNNI-1
I-1
I0
tp19
bI00
S'\xa9gh\xb4q\x0c1@\x81P"q\x11\x81\x11@\xbc&\xe6\xb2\xf8w!\xc0'
p20
tp21
bsS'nfev'
p22
I27
sS'fun'
p23
cnumpy.core.multiarray
scalar
p24
(g17
S'u\xfbh\xed\tiS@'
p25
tp26
Rp27
sS'x'
p28
g7
(g8
(I0
tp29
g10
tp30
Rp31
(I1
(I3
tp32
g17
I00
S'`\xa2\xfc-\xa2\x8f\xd9\xbf\xa7\x07\x07\xc3\x8c#\x16@`\xc7=\x8ar\xdf\x00@'
p33
tp34
bsS'message'
p35
S'Desired error not necessarily achieved due to precision loss.'
p36
sS'nhev'
p37
I1
sS'njev'
p38
I19
stp39
Rp40
.