ccopy_reg
_reconstructor
p0
(cscipy.optimize.optimize
OptimizeResult
p1
c__builtin__
dict
p2
(dp3
S'status'
p4
I0
sS'success'
p5
I01
sS'nfev'
p6
I22
sS'fun'
p7
cnumpy.core.multiarray
scalar
p8
(cnumpy
dtype
p9
(S'f8'
p10
I0
I1
tp11
Rp12
(I3
S'<'
p13
NNNI-1
I-1
I0
tp14
bS'{\x13a\xc8\x89n\xdb?'
p15
tp16
Rp17
sS'x'
p18
cnumpy.core.multiarray
_reconstruct
p19
(cnumpy
ndarray
p20
(I0
tp21
S'b'
p22
tp23
Rp24
(I1
(I3
tp25
g12
I00
S'\xd4\x98\xb8\x8b,Q\xf5\xbf\xf1\x7f\\\xe2\x8d\\!@x\x82\xeb\x99\x02\xa7\x12@'
p26
tp27
bsS'message'
p28
S'CONVERGENCE: REL_REDUCTION_OF_F_<=_FACTR*EPSMCH'
p29
sS'jac'
p30
g19
(g20
(I0
tp31
g22
tp32
Rp33
(I1
(I3
tp34
g12
I00
S'\x85\xf5\xd15\xa4\x93`?z+e\xa3\xfa\xd3K?\x96\x9fV%U\x95\\\xbf'
p35
tp36
bsS'nit'
p37
I10
stp38
Rp39
.