ccopy_reg
_reconstructor
p0
(cscipy.optimize.optimize
OptimizeResult
p1
c__builtin__
dict
p2
(dp3
S'status'
p4
I0
sS'success'
p5
I01
sS'jac'
p6
cnumpy.core.multiarray
_reconstruct
p7
(cnumpy
ndarray
p8
(I0
tp9
S'b'
p10
tp11
Rp12
(I1
(I3
tp13
cnumpy
dtype
p14
(S'f8'
p15
I0
I1
tp16
Rp17
(I3
S'<'
p18
NNNI-1
I-1
I0
tp19
bI00
S'fN\xc38^\x1d\x1b?&O6\xeaGB\xfd>\xbe\xf90\x00\xee\xd6\x06?'
p20
tp21
bsS'nfev'
p22
I19
sS'fun'
p23
F0.4286213872875436
sS'x'
p24
g7
(g8
(I0
tp25
g10
tp26
Rp27
(I1
(I3
tp28
g17
I00
S'Q\xc7\xd0\x9f\x7fP\xf5\xbf\xb3\xd6\xecO\x18("@\xf0\xe4J5\xc4r\x13@'
p29
tp30
bsS'message'
p31
S'Optimization terminated successfully.'
p32
sS'nhev'
p33
I13
sS'njev'
p34
I31
stp35
Rp36
.