ccopy_reg
_reconstructor
p0
(cscipy.optimize.optimize
OptimizeResult
p1
c__builtin__
dict
p2
(dp3
S'status'
p4
I2
sS'success'
p5
I00
sS'jac'
p6
cnumpy.core.multiarray
_reconstruct
p7
(cnumpy
ndarray
p8
(I0
tp9
S'b'
p10
tp11
Rp12
(I1
(I3
tp13
cnumpy
dtype
p14
(S'f8'
p15
I0
I1
tp16
Rp17
(I3
S'<'
p18
NNNI-1
I-1
I0
tp19
bI00
S"\xb5\xa9\x93\xf1\xe3\xf6\x81?\x87\xc4b9\xb21E\xbf\xf0\xa6\xe6a\xe7'M?"
p20
tp21
bsS'nfev'
p22
I26
sS'fun'
p23
F0.4701884249790216
sS'x'
p24
g7
(g8
(I0
tp25
g10
tp26
Rp27
(I1
(I3
tp28
g17
I00
S'@\xe1"+\xbb4\xa7?\xa0\x92epHl\x18@\rS_\xc9\xe74\x13@'
p29
tp30
bsS'message'
p31
S'Desired error not necessarily achieved due to precision loss.'
p32
sS'nhev'
p33
I8
sS'njev'
p34
I22
stp35
Rp36
.