ccopy_reg
_reconstructor
p0
(cscipy.optimize.optimize
OptimizeResult
p1
c__builtin__
dict
p2
(dp3
S'status'
p4
I1
sS'nfev'
p5
I217
sS'maxcv'
p6
cnumpy.core.multiarray
scalar
p7
(cnumpy
dtype
p8
(S'f8'
p9
I0
I1
tp10
Rp11
(I3
S'<'
p12
NNNI-1
I-1
I0
tp13
bS'\x00\x00\x00\x00\x00\x00\x00\x00'
p14
tp15
Rp16
sS'success'
p17
g7
(g8
(S'b1'
p18
I0
I1
tp19
Rp20
(I3
S'|'
p21
NNNI-1
I-1
I0
tp22
bS'\x01'
p23
tp24
Rp25
sS'fun'
p26
g7
(g11
S'9^\xb1\x88\xd5(\xdc?'
p27
tp28
Rp29
sS'x'
p30
cnumpy.core.multiarray
_reconstruct
p31
(cnumpy
ndarray
p32
(I0
tp33
S'b'
p34
tp35
Rp36
(I1
(I3
tp37
g11
I00
S'\xae5_\xf0\xee\x0b\xf0\xbfH\x8e|\x18\xd9\xf4\x19@A%{\xa2`c\x0f@'
p38
tp39
bsS'message'
p40
S'Optimization terminated successfully.'
p41
stp42
Rp43
.