ccopy_reg
_reconstructor
p0
(cscipy.optimize.optimize
OptimizeResult
p1
c__builtin__
dict
p2
(dp3
S'status'
p4
I2
sS'success'
p5
I00
sS'jac'
p6
cnumpy.core.multiarray
_reconstruct
p7
(cnumpy
ndarray
p8
(I0
tp9
S'b'
p10
tp11
Rp12
(I1
(I3
tp13
cnumpy
dtype
p14
(S'f8'
p15
I0
I1
tp16
Rp17
(I3
S'<'
p18
NNNI-1
I-1
I0
tp19
bI00
S'\xfe3i\xc0P\x89\x0b\xbf\x88[0C\x97\x0f\xcf>\xfe\xdaGo+\xe6\xfd>'
p20
tp21
bsS'nfev'
p22
I51
sS'fun'
p23
F0.4286219253803091
sS'x'
p24
g7
(g8
(I0
tp25
g10
tp26
Rp27
(I1
(I3
tp28
g17
I00
S'\xfe\xd6h\xa9\x8dQ\xf5\xbfX\xe0]m\x02\x89\x1d@~\xb8:\x89\xe2\x0e\x10@'
p29
tp30
bsS'message'
p31
S'Desired error not necessarily achieved due to precision loss.'
p32
sS'nhev'
p33
I35
sS'njev'
p34
I73
stp35
Rp36
.