ccopy_reg
_reconstructor
p0
(cscipy.optimize.optimize
OptimizeResult
p1
c__builtin__
dict
p2
(dp3
S'status'
p4
I2
sS'nhev'
p5
I13
sS'success'
p6
I00
sS'jac'
p7
cnumpy.core.multiarray
_reconstruct
p8
(cnumpy
ndarray
p9
(I0
tp10
S'b'
p11
tp12
Rp13
(I1
(I3
tp14
cnumpy
dtype
p15
(S'f8'
p16
I0
I1
tp17
Rp18
(I3
S'<'
p19
NNNI-1
I-1
I0
tp20
bI00
S'\x8c\x92\x15\x05\xcb\x02\x18\xbfm!\xde\x96_\xae%\xbf\xe6\x19^[D[2?'
p21
tp22
bsS'nfev'
p23
I38
sS'fun'
p24
cnumpy.core.multiarray
scalar
p25
(g18
S'\xd8\xa2Qn\x89n\xdb?'
p26
tp27
Rp28
sS'x'
p29
g8
(g9
(I0
tp30
g11
tp31
Rp32
(I1
(I3
tp33
g18
I00
S'S0\xc0\x1e\xe4M\xf5\xbf\x9b\xd0\x82Vx3\x1e@*n\xabu#e\x10@'
p34
tp35
bsS'message'
p36
S'A bad approximation caused failure to predict improvement.'
p37
sS'hess'
p38
g8
(g9
(I0
tp39
g11
tp40
Rp41
(I1
(I3
I3
tp42
g18
I00
S'\x00\xec\xb9\x9c\x90}T@VX\xbf\xfetTB@Y\x83\x81\x0b`TR\xc0VX\xbf\xfetTB@*\x08\xc1\xf0\xfax0@\xda\x1b\x81\xee\x05y@\xc0Y\x83\x81\x0b`TR\xc0\xda\x1b\x81\xee\x05y@\xc0e\xd2U\xc1\x0eyP@'
p43
tp44
bsS'njev'
p45
I13
sS'nit'
p46
I36
stp47
Rp48
.