ccopy_reg
_reconstructor
p0
(cscipy.optimize.optimize
OptimizeResult
p1
c__builtin__
dict
p2
(dp3
S'status'
p4
I4
sS'success'
p5
I00
sS'nfev'
p6
I66
sS'fun'
p7
cnumpy.core.multiarray
scalar
p8
(cnumpy
dtype
p9
(S'f8'
p10
I0
I1
tp11
Rp12
(I3
S'<'
p13
NNNI-1
I-1
I0
tp14
bS'b\x1e\xf6\xa7\xf4\xbc"@'
p15
tp16
Rp17
sS'x'
p18
cnumpy.core.multiarray
_reconstruct
p19
(cnumpy
ndarray
p20
(I0
tp21
S'b'
p22
tp23
Rp24
(I1
(I3
tp25
g12
I00
S";\xcb\x04\x19\xc5\x16\x05\xc0=\xe2\xe1'\xad\xe4\x1b@bI\xb1\xf9\x91\xed\x04@"
p26
tp27
bsS'message'
p28
S'Linear search failed'
p29
sS'jac'
p30
g19
(g20
(I0
tp31
g22
tp32
Rp33
(I1
(I3
tp34
g12
I00
S'\xf2\x0e\x8d{\x9ah8\xc0\xf9@\xd8\xc3\xe1\xdf\t\xc0\xe6\xb5\t"\x92\xdf\x19@'
p35
tp36
bsS'nit'
p37
I0
stp38
Rp39
.