ccopy_reg
_reconstructor
p0
(cscipy.optimize.optimize
OptimizeResult
p1
c__builtin__
dict
p2
(dp3
S'status'
p4
I2
sS'success'
p5
I00
sS'jac'
p6
cnumpy.core.multiarray
_reconstruct
p7
(cnumpy
ndarray
p8
(I0
tp9
S'b'
p10
tp11
Rp12
(I1
(I3
tp13
cnumpy
dtype
p14
(S'f8'
p15
I0
I1
tp16
Rp17
(I3
S'<'
p18
NNNI-1
I-1
I0
tp19
bI00
S'\xe0\xab_\x1c&(\x08\xc0\xe2\xe3\x90D\xdce\xf6\xbfs\xa7\rMZf\x06@'
p20
tp21
bsS'nfev'
p22
I43
sS'fun'
p23
cnumpy.core.multiarray
scalar
p24
(g17
S'\x02\xff\xb5G\x90\x86:@'
p25
tp26
Rp27
sS'x'
p28
g7
(g8
(I0
tp29
g10
tp30
Rp31
(I1
(I3
tp32
g17
I00
S'\x1ax\x12J\xd1\x0b\x06\xc0\x120\xd6\xcf<\x80"@cB\x99\x8c?w\x17@'
p33
tp34
bsS'message'
p35
S'Desired error not necessarily achieved due to precision loss.'
p36
sS'njev'
p37
I33
stp38
Rp39
.