ccopy_reg
_reconstructor
p0
(cscipy.optimize.optimize
OptimizeResult
p1
c__builtin__
dict
p2
(dp3
S'status'
p4
I2
sS'success'
p5
I00
sS'jac'
p6
cnumpy.core.multiarray
_reconstruct
p7
(cnumpy
ndarray
p8
(I0
tp9
S'b'
p10
tp11
Rp12
(I1
(I3
tp13
cnumpy
dtype
p14
(S'f8'
p15
I0
I1
tp16
Rp17
(I3
S'<'
p18
NNNI-1
I-1
I0
tp19
bI00
S'IG{\xe6\xba\x05\xe3\xbfl\x0f\xc0\xd1!\x82\xc2\xbf\x0e*b\xe9\x8b\x8b\xd2?'
p20
tp21
bsS'nfev'
p22
I59
sS'fun'
p23
F0.45672325990614443
sS'x'
p24
g7
(g8
(I0
tp25
g10
tp26
Rp27
(I1
(I3
tp28
g17
I00
S'<\xce7\xa8\x0b\xf5\xf9\xbfD8\xf0+\x10\xee"@\xab\x0e\xe4P\xf9\xe4\x12@'
p29
tp30
bsS'message'
p31
S'Desired error not necessarily achieved due to precision loss.'
p32
sS'nhev'
p33
I7
sS'njev'
p34
I55
stp35
Rp36
.