ccopy_reg
_reconstructor
p0
(cscipy.optimize.optimize
OptimizeResult
p1
c__builtin__
dict
p2
(dp3
S'status'
p4
I2
sS'nhev'
p5
I11
sS'success'
p6
I00
sS'jac'
p7
cnumpy.core.multiarray
_reconstruct
p8
(cnumpy
ndarray
p9
(I0
tp10
S'b'
p11
tp12
Rp13
(I1
(I3
tp14
cnumpy
dtype
p15
(S'f8'
p16
I0
I1
tp17
Rp18
(I3
S'<'
p19
NNNI-1
I-1
I0
tp20
bI00
S")Lh&\xdc|'\xbf\xe1\xf1\x8c\xf5\x03\x1c\x14?\x14\xdf\xc8\xea!\xa02\xbf"
p21
tp22
bsS'nfev'
p23
I35
sS'fun'
p24
cnumpy.core.multiarray
scalar
p25
(g18
S'z4\x1f\xf5\x89n\xdb?'
p26
tp27
Rp28
sS'x'
p29
g8
(g9
(I0
tp30
g11
tp31
Rp32
(I1
(I3
tp33
g18
I00
S'\xd2\xfe\x90\x8bpS\xf5\xbfL\x87eor\xe8!@\xf6\xeb,7L2\x13@'
p34
tp35
bsS'message'
p36
S'A bad approximation caused failure to predict improvement.'
p37
sS'hess'
p38
g8
(g9
(I0
tp39
g11
tp40
Rp41
(I1
(I3
I3
tp42
g18
I00
S'\x07\x1f\xda".~T@EyBJ\xd1SB@\xde]A\xd9\xa6SR\xc0EyBJ\xd1SB@%\xe9\x1e\x7f\x11w0@\xbbLK>\xb6w@\xc0\xde]A\xd9\xa6SR\xc0\xbbLK>\xb6w@\xc0\xdb\x91\r\x8b\xfevP@'
p43
tp44
bsS'njev'
p45
I11
sS'nit'
p46
I33
stp47
Rp48
.