ccopy_reg
_reconstructor
p0
(cscipy.optimize.optimize
OptimizeResult
p1
c__builtin__
dict
p2
(dp3
S'status'
p4
I2
sS'nhev'
p5
I19
sS'success'
p6
I00
sS'jac'
p7
cnumpy.core.multiarray
_reconstruct
p8
(cnumpy
ndarray
p9
(I0
tp10
S'b'
p11
tp12
Rp13
(I1
(I3
tp14
cnumpy
dtype
p15
(S'f8'
p16
I0
I1
tp17
Rp18
(I3
S'<'
p19
NNNI-1
I-1
I0
tp20
bI00
S'\x8a-\x0e\x02\xfd\xcba\xbfe\xbc\xd1\xba\x0eeJ\xbf`@E\xd6\xf8\xecY?'
p21
tp22
bsS'nfev'
p23
I46
sS'fun'
p24
cnumpy.core.multiarray
scalar
p25
(g18
S'\xc8\xd0I\x99\x94n\xdb?'
p26
tp27
Rp28
sS'x'
p29
g8
(g9
(I0
tp30
g11
tp31
Rp32
(I1
(I3
tp33
g18
I00
S'\xab\x83\x04S\x04U\xf5\xbf\xda/\x9e\x1eg\xf6\x17@\xcci\xadPN\x89\n@'
p34
tp35
bsS'message'
p36
S'A bad approximation caused failure to predict improvement.'
p37
sS'hess'
p38
g8
(g9
(I0
tp39
g11
tp40
Rp41
(I1
(I3
I3
tp42
g18
I00
S'\x0bt\n{g~T@P;\x01\x03\x8eRB@R\xad\x0f,\xf0RR\xc0P;\x01\x03\x8eRB@$7\xcd\x90\xdau0@\x7ft \x13\xa2u@\xc0R\xad\x0f,\xf0RR\xc0\x7ft \x13\xa2u@\xc03\xbe\xbb\x16\xa8uP@'
p43
tp44
bsS'njev'
p45
I19
sS'nit'
p46
I44
stp47
Rp48
.