ccopy_reg
_reconstructor
p0
(cscipy.optimize.optimize
OptimizeResult
p1
c__builtin__
dict
p2
(dp3
S'status'
p4
I2
sS'nhev'
p5
I14
sS'success'
p6
I00
sS'jac'
p7
cnumpy.core.multiarray
_reconstruct
p8
(cnumpy
ndarray
p9
(I0
tp10
S'b'
p11
tp12
Rp13
(I1
(I3
tp14
cnumpy
dtype
p15
(S'f8'
p16
I0
I1
tp17
Rp18
(I3
S'<'
p19
NNNI-1
I-1
I0
tp20
bI00
S'R\xdaHA\xed\xb0J\xbfVY\x80\xbdk\x17:\xbf=<\x1d=CUI?'
p21
tp22
bsS'nfev'
p23
I41
sS'fun'
p24
cnumpy.core.multiarray
scalar
p25
(g18
S'\x1e\x93(\xe0\x88n\xdb?'
p26
tp27
Rp28
sS'x'
p29
g8
(g9
(I0
tp30
g11
tp31
Rp32
(I1
(I3
tp33
g18
I00
S'`\x8b\x18m\xa1P\xf5\xbf\xd8\xb3\x9ft\x83\xb4 @b\xbe\xb8%)\xff\x11@'
p34
tp35
bsS'message'
p36
S'A bad approximation caused failure to predict improvement.'
p37
sS'hess'
p38
g8
(g9
(I0
tp39
g11
tp40
Rp41
(I1
(I3
I3
tp42
g18
I00
S'L\x89\xd7R\xd2}T@\x91\x04\x87$\xdcSB@\xb4\x85{\x0b\xf9SR\xc0\x91\x04\x87$\xdcSB@n\\\x05\x81\xe8w0@\xe8Yv\xaa\xd5w@\xc0\xb4\x85{\x0b\xf9SR\xc0\xe8Yv\xaa\xd5w@\xc0\xf6\xdc\xd3\xbc\rxP@'
p43
tp44
bsS'njev'
p45
I14
sS'nit'
p46
I39
stp47
Rp48
.