ccopy_reg
_reconstructor
p0
(cscipy.optimize.optimize
OptimizeResult
p1
c__builtin__
dict
p2
(dp3
S'status'
p4
I2
sS'success'
p5
I00
sS'jac'
p6
cnumpy.core.multiarray
_reconstruct
p7
(cnumpy
ndarray
p8
(I0
tp9
S'b'
p10
tp11
Rp12
(I1
(I3
tp13
cnumpy
dtype
p14
(S'f8'
p15
I0
I1
tp16
Rp17
(I3
S'<'
p18
NNNI-1
I-1
I0
tp19
bI00
S'\x8ao\xb3ZJ\x06\x06\xc0\nY\xf9Q\x97\xe6\xf5\xbf\x83P>N\x81\xe6\x05@'
p20
tp21
bsS'nfev'
p22
I16
sS'fun'
p23
F0.514105491866315
sS'x'
p24
g7
(g8
(I0
tp25
g10
tp26
Rp27
(I1
(I3
tp28
g17
I00
S'\xe9\xe0\xea\x80\xe6,\xdd\xbf\x8d\t\xeb\x15T\xc6\x1d@(\x9ax\xaaf\x02\x14@'
p29
tp30
bsS'message'
p31
S'Desired error not necessarily achieved due to precision loss.'
p32
sS'njev'
p33
I4
stp34
Rp35
.