ccopy_reg
_reconstructor
p0
(cscipy.optimize.optimize
OptimizeResult
p1
c__builtin__
dict
p2
(dp3
S'status'
p4
I3
sS'success'
p5
I00
sS'nfev'
p6
I100
sS'fun'
p7
cnumpy.core.multiarray
scalar
p8
(cnumpy
dtype
p9
(S'f8'
p10
I0
I1
tp11
Rp12
(I3
S'<'
p13
NNNI-1
I-1
I0
tp14
bS'u\x99S\x93*3\xe2?'
p15
tp16
Rp17
sS'x'
p18
cnumpy.core.multiarray
_reconstruct
p19
(cnumpy
ndarray
p20
(I0
tp21
S'b'
p22
tp23
Rp24
(I1
(I3
tp25
g12
I00
S'2\x17\x86\x1f\xe3\xfd\xfc\xbf\x14\x08A\x9a\x87\x1b @\xe5\x0b\x9a\x02\rs\x0e@'
p26
tp27
bsS'message'
p28
S'Max. number of function evaluations reach'
p29
sS'jac'
p30
g19
(g20
(I0
tp31
g22
tp32
Rp33
(I1
(I3
tp34
g12
I00
S'\xfe\xf8C\x02W\xd7\x07\xc0\xb9\xb3\x83@\x96\xb5\xeb\xbf\x08\xbc\xc3\x05\xcb\xb5\xfb?'
p35
tp36
bsS'nit'
p37
I5
stp38
Rp39
.