ccopy_reg
_reconstructor
p0
(cscipy.optimize.optimize
OptimizeResult
p1
c__builtin__
dict
p2
(dp3
S'status'
p4
I0
sS'success'
p5
I01
sS'jac'
p6
cnumpy.core.multiarray
_reconstruct
p7
(cnumpy
ndarray
p8
(I0
tp9
S'b'
p10
tp11
Rp12
(I1
(I3
tp13
cnumpy
dtype
p14
(S'f8'
p15
I0
I1
tp16
Rp17
(I3
S'<'
p18
NNNI-1
I-1
I0
tp19
bI00
S'\x9d\xdes\xfa\x1a\xd5P\xbf\xadm\x81\xd48\xa2@\xbff\x18\xd7\x05\xb3<R?'
p20
tp21
bsS'nfev'
p22
I20
sS'fun'
p23
F0.4286224206414023
sS'x'
p24
g7
(g8
(I0
tp25
g10
tp26
Rp27
(I1
(I3
tp28
g17
I00
S'\x12=$\x9f\xa2Q\xf5\xbf~\xd1\x9a"_\x1e\x1e@\x04\xa1u\xfb\x8eY\x10@'
p29
tp30
bsS'message'
p31
S'Optimization terminated successfully.'
p32
sS'nhev'
p33
I14
sS'njev'
p34
I33
stp35
Rp36
.