ccopy_reg
_reconstructor
p0
(cscipy.optimize.optimize
OptimizeResult
p1
c__builtin__
dict
p2
(dp3
S'status'
p4
I2
sS'nhev'
p5
I21
sS'success'
p6
I00
sS'jac'
p7
cnumpy.core.multiarray
_reconstruct
p8
(cnumpy
ndarray
p9
(I0
tp10
S'b'
p11
tp12
Rp13
(I1
(I3
tp14
cnumpy
dtype
p15
(S'f8'
p16
I0
I1
tp17
Rp18
(I3
S'<'
p19
NNNI-1
I-1
I0
tp20
bI00
S'i\xc6u\xb1\xf7\x97\x06\xbf\xb6\xcf\x87\xd7\xefd\x07?()^T\xb7\xa7\x19?'
p21
tp22
bsS'nfev'
p23
I46
sS'fun'
p24
cnumpy.core.multiarray
scalar
p25
(g18
S'\rP@H\x8an\xdb?'
p26
tp27
Rp28
sS'x'
p29
g8
(g9
(I0
tp30
g11
tp31
Rp32
(I1
(I3
tp33
g18
I00
S'\x1c\x82\xe6%\x12Q\xf5\xbf\x11*\x8b[|1 @VXp\xc3\xff{\x11@'
p34
tp35
bsS'message'
p36
S'A bad approximation caused failure to predict improvement.'
p37
sS'hess'
p38
g8
(g9
(I0
tp39
g11
tp40
Rp41
(I1
(I3
I3
tp42
g18
I00
S'\x8b\x16\r\xcew~T@g,\x1e\xf0\xebSB@\xff\x89|\x9f\xa0SR\xc0g,\x1e\xf0\xebSB@0\x10qa\xa7w0@\xab\xd5\xd0\xd9\x02x@\xc0\xff\x89|\x9f\xa0SR\xc0\xab\xd5\xd0\xd9\x02x@\xc0\xb5\xa2\xecV\xebwP@'
p43
tp44
bsS'njev'
p45
I21
sS'nit'
p46
I44
stp47
Rp48
.