ccopy_reg
_reconstructor
p0
(cscipy.optimize.optimize
OptimizeResult
p1
c__builtin__
dict
p2
(dp3
S'status'
p4
I2
sS'success'
p5
I00
sS'nfev'
p6
I92
sS'fun'
p7
cnumpy.core.multiarray
scalar
p8
(cnumpy
dtype
p9
(S'f8'
p10
I0
I1
tp11
Rp12
(I3
S'<'
p13
NNNI-1
I-1
I0
tp14
bS'\xa9`\x9fl\x8cn\xdb?'
p15
tp16
Rp17
sS'x'
p18
cnumpy.core.multiarray
_reconstruct
p19
(cnumpy
ndarray
p20
(I0
tp21
S'b'
p22
tp23
Rp24
(I1
(I3
tp25
g12
I00
S'E\x9c\xbd\x96\xa4N\xf5\xbf\xfd\x96S\xa5\x94\x9f\x1a@\xad\xb0\xdb\xce\xf85\r@'
p26
tp27
bsS'message'
p28
S'ABNORMAL_TERMINATION_IN_LNSRCH'
p29
sS'jac'
p30
g19
(g20
(I0
tp31
g22
tp32
Rp33
(I1
(I3
tp34
g12
I00
S'\x92\x83f^\x8e\x98\x03?\xdcW\x9cKz\xc9\x19\xbf\x10\xab\x91=\x0bX&?'
p35
tp36
bsS'nit'
p37
I21
stp38
Rp39
.