ccopy_reg
_reconstructor
p0
(cscipy.optimize.optimize
OptimizeResult
p1
c__builtin__
dict
p2
(dp3
S'status'
p4
I3
sS'nhev'
p5
I1
sS'success'
p6
I00
sS'jac'
p7
cnumpy.core.multiarray
_reconstruct
p8
(cnumpy
ndarray
p9
(I0
tp10
S'b'
p11
tp12
Rp13
(I1
(I3
tp14
cnumpy
dtype
p15
(S'f8'
p16
I0
I1
tp17
Rp18
(I3
S'<'
p19
NNNI-1
I-1
I0
tp20
bI00
S'\xcfX\x0e?Ke4@\x14\xfa\xd6\xea\xcb\xe5\x11@!y\x94\xb3?\xe4!\xc0'
p21
tp22
bsS'nfev'
p23
I1
sS'fun'
p24
cnumpy.core.multiarray
scalar
p25
(g18
S'^\x1b\xb6\x91\xd6\x01S@'
p26
tp27
Rp28
sS'x'
p29
g8
(g9
(I0
tp30
g11
tp31
Rp32
(I1
(I3
tp33
g18
I00
S'\xb0\x08\xfb!F\xfc\xe1\xbf\x92\xca\x0fn=X\x1b@#?c$d\xcc\x04@'
p34
tp35
bsS'message'
p36
S'A linalg error occurred, such as a non-psd Hessian.'
p37
sS'hess'
p38
g8
(g9
(I0
tp39
g11
tp40
Rp41
(I1
(I3
I3
tp42
g18
I00
S'\xc7\x1ff\xce\x19\xb5H\xc0\xdbRc\x82!>*\xc0\x88r5\xdd\xd95:@\xdbRc\x82!>*\xc0\xac\x05\x02\xcd\x86I\x19\xc0.\x02\t1{E)@\x88r5\xdd\xd95:@.\x02\t1{E)@\x90\x0c\x8d\xf5\x03N9\xc0'
p43
tp44
bsS'njev'
p45
I1
sS'nit'
p46
I0
stp47
Rp48
.