ccopy_reg
_reconstructor
p0
(cscipy.optimize.optimize
OptimizeResult
p1
c__builtin__
dict
p2
(dp3
S'status'
p4
I4
sS'success'
p5
I00
sS'nfev'
p6
I66
sS'fun'
p7
cnumpy.core.multiarray
scalar
p8
(cnumpy
dtype
p9
(S'f8'
p10
I0
I1
tp11
Rp12
(I3
S'<'
p13
NNNI-1
I-1
I0
tp14
bS'\x12l%?\xbaL:@'
p15
tp16
Rp17
sS'x'
p18
cnumpy.core.multiarray
_reconstruct
p19
(cnumpy
ndarray
p20
(I0
tp21
S'b'
p22
tp23
Rp24
(I1
(I3
tp25
g12
I00
S'\x90\xf5"r*\x91\xfa\xbfL\xea=$=\x15\x1b@M\x90\xf8\xd8E\xb8\x16@'
p26
tp27
bsS'message'
p28
S'Linear search failed'
p29
sS'jac'
p30
g19
(g20
(I0
tp31
g22
tp32
Rp33
(I1
(I3
tp34
g12
I00
S'\xe1\xb3\x91\xbcyA\n\xc0\xf5G\x128?\x11\xfa\xbf\xddC\x97\x17\x04\x13\n@'
p35
tp36
bsS'nit'
p37
I0
stp38
Rp39
.