ccopy_reg
_reconstructor
p0
(cscipy.optimize.optimize
OptimizeResult
p1
c__builtin__
dict
p2
(dp3
S'status'
p4
I2
sS'success'
p5
I00
sS'jac'
p6
cnumpy.core.multiarray
_reconstruct
p7
(cnumpy
ndarray
p8
(I0
tp9
S'b'
p10
tp11
Rp12
(I1
(I3
tp13
cnumpy
dtype
p14
(S'f8'
p15
I0
I1
tp16
Rp17
(I3
S'<'
p18
NNNI-1
I-1
I0
tp19
bI00
S'Z9Nv\x89\xcd#\xc0T\xb4* \x19\x94\xf4\xbf\x93B\x13q\xad\xaf\x04@'
p20
tp21
bsS'nfev'
p22
I38
sS'fun'
p23
cnumpy.core.multiarray
scalar
p24
(g17
S'\xf2|\xaeRL=7@'
p25
tp26
Rp27
sS'x'
p28
g7
(g8
(I0
tp29
g10
tp30
Rp31
(I1
(I3
tp32
g17
I00
S'\xea\x86\xad\xdd\xe0\xae\n\xc0\xd1\xc6\x1b\xfda\xe0"@\n\x06\xc4Dy\xa0\x10@'
p33
tp34
bsS'message'
p35
S'Desired error not necessarily achieved due to precision loss.'
p36
sS'nhev'
p37
I1
sS'njev'
p38
I29
stp39
Rp40
.