ccopy_reg
_reconstructor
p0
(cscipy.optimize.optimize
OptimizeResult
p1
c__builtin__
dict
p2
(dp3
S'status'
p4
I0
sS'nfev'
p5
I222
sS'success'
p6
I01
sS'fun'
p7
cnumpy.core.multiarray
scalar
p8
(cnumpy
dtype
p9
(S'f8'
p10
I0
I1
tp11
Rp12
(I3
S'<'
p13
NNNI-1
I-1
I0
tp14
bS'!\x99\x02\xbc\x8an\xdb?'
p15
tp16
Rp17
sS'x'
p18
cnumpy.core.multiarray
_reconstruct
p19
(cnumpy
ndarray
p20
(I0
tp21
S'b'
p22
tp23
Rp24
(I1
(I3
tp25
g12
I00
S'\x84\xcbo\xa4\xcfP\xf5\xbft\xc9\xae\xe8\x9ae\x1e@2F\xc6\x1cb}\x10@'
p26
tp27
bsS'message'
p28
S'Optimization terminated successfully.'
p29
sS'nit'
p30
I122
stp31
Rp32
.