ccopy_reg
_reconstructor
p0
(cscipy.optimize.optimize
OptimizeResult
p1
c__builtin__
dict
p2
(dp3
S'status'
p4
I3
sS'success'
p5
I00
sS'nfev'
p6
I100
sS'fun'
p7
cnumpy.core.multiarray
scalar
p8
(cnumpy
dtype
p9
(S'f8'
p10
I0
I1
tp11
Rp12
(I3
S'<'
p13
NNNI-1
I-1
I0
tp14
bS'\xc8\xd6\xee\xda\xefn\xdb?'
p15
tp16
Rp17
sS'x'
p18
cnumpy.core.multiarray
_reconstruct
p19
(cnumpy
ndarray
p20
(I0
tp21
S'b'
p22
tp23
Rp24
(I1
(I3
tp25
g12
I00
S',\x83\xfc\xd0\xa2|\xf5\xbf\xc86\nk\xfd\xf9\x1f@\xfc\xb0\xbe\xd4\x96;\x11@'
p26
tp27
bsS'message'
p28
S'Max. number of function evaluations reach'
p29
sS'jac'
p30
g19
(g20
(I0
tp31
g22
tp32
Rp33
(I1
(I3
tp34
g12
I00
S'\x87\x0c\x97\xe4\x190\x94\xbf\xd7\x13\xf9\xe1\x11b|\xbfV\x85\xeb=\xf0\x84\x8c?'
p35
tp36
bsS'nit'
p37
I9
stp38
Rp39
.