ccopy_reg
_reconstructor
p0
(cscipy.optimize.optimize
OptimizeResult
p1
c__builtin__
dict
p2
(dp3
S'status'
p4
I0
sS'nhev'
p5
I8
sS'success'
p6
I01
sS'jac'
p7
cnumpy.core.multiarray
_reconstruct
p8
(cnumpy
ndarray
p9
(I0
tp10
S'b'
p11
tp12
Rp13
(I1
(I3
tp14
cnumpy
dtype
p15
(S'f8'
p16
I0
I1
tp17
Rp18
(I3
S'<'
p19
NNNI-1
I-1
I0
tp20
bI00
S'\xc3\x83\x83\xab,<\xf4\xbe8\x04\x13\xb9a\xc4\xf1>\xd0\xb7\x87\xc0\xbe\x02\xdf\xbe'
p21
tp22
bsS'nfev'
p23
I10
sS'fun'
p24
cnumpy.core.multiarray
scalar
p25
(g18
S'\xeb>$-\x8cn\xdb?'
p26
tp27
Rp28
sS'x'
p29
g8
(g9
(I0
tp30
g11
tp31
Rp32
(I1
(I3
tp33
g18
I00
S'+\xaa\xc3\x86\xf6Q\xf5\xbf\xbe\x981\xaa\x08Q\x1f@\xa7\xdeT\xe5\xc7\xf2\x10@'
p34
tp35
bsS'message'
p36
S'Optimization terminated successfully.'
p37
sS'hess'
p38
g8
(g9
(I0
tp39
g11
tp40
Rp41
(I1
(I3
I3
tp42
g18
I00
S"\xd0\xcf\xbepd~T@?\xb7\x1cl\xd9SB@<'c\xb3'TR\xc0?\xb7\x1cl\xd9SB@;N\xf9\xfdiw0@N\xe3\xacJ0w@\xc0<'c\xb3'TR\xc0N\xe3\xacJ0w@\xc0\xd3\x81\xc8V-xP@"
p43
tp44
bsS'njev'
p45
I9
sS'nit'
p46
I9
stp47
Rp48
.