ccopy_reg
_reconstructor
p0
(cscipy.optimize.optimize
OptimizeResult
p1
c__builtin__
dict
p2
(dp3
S'status'
p4
I0
sS'nhev'
p5
I15
sS'success'
p6
I01
sS'jac'
p7
cnumpy.core.multiarray
_reconstruct
p8
(cnumpy
ndarray
p9
(I0
tp10
S'b'
p11
tp12
Rp13
(I1
(I3
tp14
cnumpy
dtype
p15
(S'f8'
p16
I0
I1
tp17
Rp18
(I3
S'<'
p19
NNNI-1
I-1
I0
tp20
bI00
S'X\xc1\x89\x95\xfax\xf7\xbe`dH\xdas\x93\xf9\xbep\x88\xa4\xad\x8f6\xf3>'
p21
tp22
bsS'nfev'
p23
I29
sS'fun'
p24
cnumpy.core.multiarray
scalar
p25
(g18
S'\x0ftK\xa4\x8an\xdb?'
p26
tp27
Rp28
sS'x'
p29
g8
(g9
(I0
tp30
g11
tp31
Rp32
(I1
(I3
tp33
g18
I00
S'W9Y\xad\xf1O\xf5\xbf|2\x04\x9f\xfc\xd7 @\x80\xb0\x813\xd0"\x12@'
p34
tp35
bsS'message'
p36
S'Optimization terminated successfully.'
p37
sS'hess'
p38
g8
(g9
(I0
tp39
g11
tp40
Rp41
(I1
(I3
I3
tp42
g18
I00
S'\x9a\x94j\x0b\xe3}T@\x11Y\xc7p\x14TB@\x15\xe0C\x85>TR\xc0\x11Y\xc7p\x14TB@\xf55\xca$\x1ex0@\xedap\xbfxx@\xc0\x15\xe0C\x85>TR\xc0\xedap\xbfxx@\xc0\x8d\x14\x9c\x06\xadwP@'
p43
tp44
bsS'njev'
p45
I16
sS'nit'
p46
I28
stp47
Rp48
.