ccopy_reg
_reconstructor
p0
(cscipy.optimize.optimize
OptimizeResult
p1
c__builtin__
dict
p2
(dp3
S'status'
p4
I2
sS'success'
p5
I00
sS'jac'
p6
cnumpy.core.multiarray
_reconstruct
p7
(cnumpy
ndarray
p8
(I0
tp9
S'b'
p10
tp11
Rp12
(I1
(I3
tp13
cnumpy
dtype
p14
(S'f8'
p15
I0
I1
tp16
Rp17
(I3
S'<'
p18
NNNI-1
I-1
I0
tp19
bI00
S'\x9e\xfa,\xbap\xec4?\xca\xd0\t:n\x1b\x1e?:\xb6\x1e\xbc)\t1\xbf'
p20
tp21
bsS'nfev'
p22
I43
sS'hess_inv'
p23
g7
(g8
(I0
tp24
g10
tp25
Rp26
(I1
(I3
I3
tp27
g17
I00
S'\x92 \x04\xc9,\x04\xba?3V\xc7EG\xd9\xa6?\xd6E\xd0\x98\xba)\xa7?4V\xc7EG\xd9\xa6?\xa4\xaaV_\xc3\xb4\x94?L4~\xe0SM\x95?\xe9E\xd0\x98\xba)\xa7?\\4~\xe0SM\x95?\x89\x13;>v#\x96?'
p28
tp29
bsS'fun'
p30
F0.4286254820454055
sS'x'
p31
g7
(g8
(I0
tp32
g10
tp33
Rp34
(I1
(I3
tp35
g17
I00
S'\x12\xbdmM9R\xf5\xbfB\xcd\x14J\xfc\xb0\x16@\x91\xbd\x907eE\t@'
p36
tp37
bsS'message'
p38
S'Desired error not necessarily achieved due to precision loss.'
p39
sS'njev'
p40
I31
stp41
Rp42
.