ccopy_reg
_reconstructor
p0
(cscipy.optimize.optimize
OptimizeResult
p1
c__builtin__
dict
p2
(dp3
S'status'
p4
I0
sS'nhev'
p5
I15
sS'success'
p6
I01
sS'jac'
p7
cnumpy.core.multiarray
_reconstruct
p8
(cnumpy
ndarray
p9
(I0
tp10
S'b'
p11
tp12
Rp13
(I1
(I3
tp14
cnumpy
dtype
p15
(S'f8'
p16
I0
I1
tp17
Rp18
(I3
S'<'
p19
NNNI-1
I-1
I0
tp20
bI00
S'O\x89\xd97A\r\x15\xbf\xda\xa3\x91@\xcc\x0b\xe5>8j\xec\xa9]\xec\xf2\xbe'
p21
tp22
bsS'nfev'
p23
I26
sS'fun'
p24
cnumpy.core.multiarray
scalar
p25
(g18
S'0\xa2-\xdd\x8en\xdb?'
p26
tp27
Rp28
sS'x'
p29
g8
(g9
(I0
tp30
g11
tp31
Rp32
(I1
(I3
tp33
g18
I00
S'\xdba\xc2X\xdcQ\xf5\xbf\x1f\xdaR\x06\xa4R\x19@`-<\x8f=\xe7\x0b@'
p34
tp35
bsS'message'
p36
S'Optimization terminated successfully.'
p37
sS'hess'
p38
g8
(g9
(I0
tp39
g11
tp40
Rp41
(I1
(I3
I3
tp42
g18
I00
S'\xef\x1e\xae\x0cz~T@9\xe7t\xc9\x9fSB@Z\xbd\x97\x9e\xb5SR\xc09\xe7t\xc9\x9fSB@-3,^*w0@\xc52\x85i9w@\xc0Z\xbd\x97\x9e\xb5SR\xc0\xc52\x85i9w@\xc0^\xa5*\xfa\x85wP@'
p43
tp44
bsS'njev'
p45
I16
sS'nit'
p46
I25
stp47
Rp48
.