ccopy_reg
_reconstructor
p0
(cscipy.optimize.optimize
OptimizeResult
p1
c__builtin__
dict
p2
(dp3
S'status'
p4
I2
sS'success'
p5
I01
sS'nfev'
p6
I14
sS'fun'
p7
cnumpy.core.multiarray
scalar
p8
(cnumpy
dtype
p9
(S'f8'
p10
I0
I1
tp11
Rp12
(I3
S'<'
p13
NNNI-1
I-1
I0
tp14
bS'\xf0\t\xba\xd2\x0e\xb9\xdc?'
p15
tp16
Rp17
sS'x'
p18
cnumpy.core.multiarray
_reconstruct
p19
(cnumpy
ndarray
p20
(I0
tp21
S'b'
p22
tp23
Rp24
(I1
(I3
tp25
g12
I00
S'\xc7\x1dF\xf7\xe51\xea\xbf\xc3\xe2\x08\xde\xcf\xdf\x17@\xc6\x96\x88c\xfb\xd7\x0e@'
p26
tp27
bsS'message'
p28
S'Converged (|x_n-x_(n-1)| ~= 0)'
p29
sS'jac'
p30
g19
(g20
(I0
tp31
g22
tp32
Rp33
(I1
(I3
tp34
g12
I00
S'm\x00=\x18\x93$\xa0?E\xf4\x1f\xbf\xe7\xb8z\xbf\xb6\xfb2\x1dfg\x8a?'
p35
tp36
bsS'nit'
p37
I3
stp38
Rp39
.