ccopy_reg
_reconstructor
p0
(cscipy.optimize.optimize
OptimizeResult
p1
c__builtin__
dict
p2
(dp3
S'status'
p4
I2
sS'success'
p5
I00
sS'nfev'
p6
I66
sS'fun'
p7
cnumpy.core.multiarray
scalar
p8
(cnumpy
dtype
p9
(S'f8'
p10
I0
I1
tp11
Rp12
(I3
S'<'
p13
NNNI-1
I-1
I0
tp14
bS'\x8b\xc0\xb5\x03\x90n\xdb?'
p15
tp16
Rp17
sS'x'
p18
cnumpy.core.multiarray
_reconstruct
p19
(cnumpy
ndarray
p20
(I0
tp21
S'b'
p22
tp23
Rp24
(I1
(I3
tp25
g12
I00
S'\x8e\xfa2\xbd/P\xf5\xbf\xafvs\x00L\x85\x19@\x99\x9c\xc0\x96\xdd\x1a\x0c@'
p26
tp27
bsS'message'
p28
S'ABNORMAL_TERMINATION_IN_LNSRCH'
p29
sS'jac'
p30
g19
(g20
(I0
tp31
g22
tp32
Rp33
(I1
(I3
tp34
g12
I00
S'\xd4\x0eK\xf9\xf2\xd4R\xbf\x9f\xe0\xae\xdeR\xa1C\xbf\x86~\xf2\x9f\x8dzS?'
p35
tp36
bsS'nit'
p37
I14
stp38
Rp39
.