ccopy_reg
_reconstructor
p0
(cscipy.optimize.optimize
OptimizeResult
p1
c__builtin__
dict
p2
(dp3
S'status'
p4
I0
sS'success'
p5
I01
sS'jac'
p6
cnumpy.core.multiarray
_reconstruct
p7
(cnumpy
ndarray
p8
(I0
tp9
S'b'
p10
tp11
Rp12
(I1
(I3
tp13
cnumpy
dtype
p14
(S'f8'
p15
I0
I1
tp16
Rp17
(I3
S'<'
p18
NNNI-1
I-1
I0
tp19
bI00
S'3\xd47[\x1a\x94\x14\xbf\xa9\x04z\x11\xb0\xe6\x1e\xbf\x10\xe5\x9c\x17?\xe0/?'
p20
tp21
bsS'nfev'
p22
I25
sS'fun'
p23
F0.42862231591570393
sS'x'
p24
g7
(g8
(I0
tp25
g10
tp26
Rp27
(I1
(I3
tp28
g17
I00
S'\xdf;\xaf\xad\x9fP\xf5\xbf\xb5\x88F\xe5\xa5\xe3\x1d@\xd8\xe9&\xe1v<\x10@'
p29
tp30
bsS'message'
p31
S'Optimization terminated successfully.'
p32
sS'nhev'
p33
I17
sS'njev'
p34
I41
stp35
Rp36
.