ccopy_reg
_reconstructor
p0
(cscipy.optimize.optimize
OptimizeResult
p1
c__builtin__
dict
p2
(dp3
S'status'
p4
I2
sS'nfev'
p5
I1000
sS'maxcv'
p6
cnumpy.core.multiarray
scalar
p7
(cnumpy
dtype
p8
(S'f8'
p9
I0
I1
tp10
Rp11
(I3
S'<'
p12
NNNI-1
I-1
I0
tp13
bS'\x00\x00\x00\x00\x00\x00\x00\x00'
p14
tp15
Rp16
sS'success'
p17
g7
(g8
(S'b1'
p18
I0
I1
tp19
Rp20
(I3
S'|'
p21
NNNI-1
I-1
I0
tp22
bS'\x00'
p23
tp24
Rp25
sS'fun'
p26
g7
(g11
S'\xfe\x07\xa6\xe6\xcd\xa8\xdb?'
p27
tp28
Rp29
sS'x'
p30
cnumpy.core.multiarray
_reconstruct
p31
(cnumpy
ndarray
p32
(I0
tp33
S'b'
p34
tp35
Rp36
(I1
(I3
tp37
g11
I00
S'YxG\x00\xddE\xf7\xbf\xb7&M\x0fQ\x0c\x1d@n\xe0\xec_3\x85\x0e@'
p38
tp39
bsS'message'
p40
S'Maximum number of function evaluations has been exceeded.'
p41
stp42
Rp43
.