ccopy_reg
_reconstructor
p0
(cscipy.optimize.optimize
OptimizeResult
p1
c__builtin__
dict
p2
(dp3
S'status'
p4
I0
sS'success'
p5
I01
sS'jac'
p6
cnumpy.core.multiarray
_reconstruct
p7
(cnumpy
ndarray
p8
(I0
tp9
S'b'
p10
tp11
Rp12
(I1
(I3
tp13
cnumpy
dtype
p14
(S'f8'
p15
I0
I1
tp16
Rp17
(I3
S'<'
p18
NNNI-1
I-1
I0
tp19
bI00
S'7\xfa7\xd3<\xf1\x12?\xc3\xa2\xcdZ\x11\xab\xef\xbek\xd47\x18\xda\xfd\t?'
p20
tp21
bsS'nfev'
p22
I165
sS'fun'
p23
cnumpy.core.multiarray
scalar
p24
(g17
S'\x9a\xe2\xb0N\x89n\xdb?'
p25
tp26
Rp27
sS'x'
p28
g7
(g8
(I0
tp29
g10
tp30
Rp31
(I1
(I3
tp32
g17
I00
S'\xe5*\xbf\xdb\x97P\xf5\xbf9T\xfa\xb9\xb5\xa0\x1d@\x1aU\xce\xb6\x00\x1b\x10@'
p33
tp34
bsS'message'
p35
S'Optimization terminated successfully.'
p36
sS'nhev'
p37
I150
sS'njev'
p38
I308
stp39
Rp40
.