ccopy_reg
_reconstructor
p0
(cscipy.optimize.optimize
OptimizeResult
p1
c__builtin__
dict
p2
(dp3
S'status'
p4
I2
sS'success'
p5
I00
sS'jac'
p6
cnumpy.core.multiarray
_reconstruct
p7
(cnumpy
ndarray
p8
(I0
tp9
S'b'
p10
tp11
Rp12
(I1
(I3
tp13
cnumpy
dtype
p14
(S'f8'
p15
I0
I1
tp16
Rp17
(I3
S'<'
p18
NNNI-1
I-1
I0
tp19
bI00
S'2\xb1\n\xac\xcb\x15\x17\xbf\x8f\xcf\x00r#\xae\x10?\xde\x04n\xa5Q8"\xbf'
p20
tp21
bsS'nfev'
p22
I25
sS'fun'
p23
F0.4286219447022535
sS'x'
p24
g7
(g8
(I0
tp25
g10
tp26
Rp27
(I1
(I3
tp28
g17
I00
S'\x14\x05[\xadxS\xf5\xbf\xd9lC3=7 @\xa58A\xe0\x14\x81\x11@'
p29
tp30
bsS'message'
p31
S'Desired error not necessarily achieved due to precision loss.'
p32
sS'nhev'
p33
I7
sS'njev'
p34
I20
stp35
Rp36
.