ccopy_reg
_reconstructor
p0
(cscipy.optimize.optimize
OptimizeResult
p1
c__builtin__
dict
p2
(dp3
S'status'
p4
I2
sS'success'
p5
I00
sS'jac'
p6
cnumpy.core.multiarray
_reconstruct
p7
(cnumpy
ndarray
p8
(I0
tp9
S'b'
p10
tp11
Rp12
(I1
(I3
tp13
cnumpy
dtype
p14
(S'f8'
p15
I0
I1
tp16
Rp17
(I3
S'<'
p18
NNNI-1
I-1
I0
tp19
bI00
S'\x87f9\x93\x9bk6\xc0\x89*d\xf3\xac\xbf\x07\xc0\x1a\xb0\xa1\n\x11\xc1\x17@'
p20
tp21
bsS'nfev'
p22
I15
sS'fun'
p23
F5.430741480753966
sS'x'
p24
g7
(g8
(I0
tp25
g10
tp26
Rp27
(I1
(I3
tp28
g17
I00
S'\xca\x84Z\xf9\xeb\xde\x03\xc0\xa9\x84}\xa0e\x94\x1b@\x7f\xb97G\x9b8\x04@'
p29
tp30
bsS'message'
p31
S'Desired error not necessarily achieved due to precision loss.'
p32
sS'njev'
p33
I3
stp34
Rp35
.