ccopy_reg
_reconstructor
p0
(cscipy.optimize.optimize
OptimizeResult
p1
c__builtin__
dict
p2
(dp3
S'status'
p4
I4
sS'success'
p5
I00
sS'nfev'
p6
I89
sS'fun'
p7
cnumpy.core.multiarray
scalar
p8
(cnumpy
dtype
p9
(S'f8'
p10
I0
I1
tp11
Rp12
(I3
S'<'
p13
NNNI-1
I-1
I0
tp14
bS'\x1a\xe1\x10\xef\x1a\x8d\xdd?'
p15
tp16
Rp17
sS'x'
p18
cnumpy.core.multiarray
_reconstruct
p19
(cnumpy
ndarray
p20
(I0
tp21
S'b'
p22
tp23
Rp24
(I1
(I3
tp25
g12
I00
S'x\xbd\xe7\xaf\xf4\xf4\xdc\xbf\x08\x7fm\xf9\xc5\xe7\x1d@\x98\xce\xe6L<\xf0\x13@'
p26
tp27
bsS'message'
p28
S'Linear search failed'
p29
sS'jac'
p30
g19
(g20
(I0
tp31
g22
tp32
Rp33
(I1
(I3
tp34
g12
I00
S'l\xa5E\x93:7}?\xdb\xff\xde\xd3Q\x19\x83\xbfo}\xa9\x0f\x94\xac\x92?'
p35
tp36
bsS'nit'
p37
I3
stp38
Rp39
.