ccopy_reg
_reconstructor
p0
(cscipy.optimize.optimize
OptimizeResult
p1
c__builtin__
dict
p2
(dp3
S'nfev'
p4
I1314
sS'success'
p5
I01
sS'fun'
p6
cnumpy.core.multiarray
scalar
p7
(cnumpy
dtype
p8
(S'f8'
p9
I0
I1
tp10
Rp11
(I3
S'<'
p12
NNNI-1
I-1
I0
tp13
bS'2\x17\xb96\xa9n\xdb?'
p14
tp15
Rp16
sS'x'
p17
cnumpy.core.multiarray
_reconstruct
p18
(cnumpy
ndarray
p19
(I0
tp20
S'b'
p21
tp22
Rp23
(I1
(I3
tp24
g11
I00
S'\xc8Z\x869:7\xf5\xbf;\xd4\xc8kb\xb5"@\xab\x94\x99L\x1c\x07\x14@'
p25
tp26
bsS'message'
p27
S'Optimization terminated successfully.'
p28
sS'jac'
p29
g18
(g19
(I0
tp30
g21
tp31
Rp32
(I1
(I3
tp33
g11
I00
S'\x00\x00\x88\xd6\xe4m2?xr\xc2\\\xce+@@\x00\x80\x03>\x87\x01`?'
p34
tp35
bsS'nit'
p36
I25
stp37
Rp38
.