ccopy_reg
_reconstructor
p0
(cscipy.optimize.optimize
OptimizeResult
p1
c__builtin__
dict
p2
(dp3
S'status'
p4
I2
sS'nhev'
p5
I17
sS'success'
p6
I00
sS'jac'
p7
cnumpy.core.multiarray
_reconstruct
p8
(cnumpy
ndarray
p9
(I0
tp10
S'b'
p11
tp12
Rp13
(I1
(I3
tp14
cnumpy
dtype
p15
(S'f8'
p16
I0
I1
tp17
Rp18
(I3
S'<'
p19
NNNI-1
I-1
I0
tp20
bI00
S'\x88\xcc\x04>\xb9\x980?\xcb\xf1@!HJ#?\xb4]\xeb\x1c\x1e\x964\xbf'
p21
tp22
bsS'nfev'
p23
I42
sS'fun'
p24
cnumpy.core.multiarray
scalar
p25
(g18
S'Z\xc9Z\x86\x8cn\xdb?'
p26
tp27
Rp28
sS'x'
p29
g8
(g9
(I0
tp30
g11
tp31
Rp32
(I1
(I3
tp33
g18
I00
S'3\x97\xe7o\xc7Q\xf5\xbf\x83\x9c\xfd\x12T\xf1\x1a@\xbb\x0b\xfe\xa2\xf5\x85\r@'
p34
tp35
bsS'message'
p36
S'A bad approximation caused failure to predict improvement.'
p37
sS'hess'
p38
g8
(g9
(I0
tp39
g11
tp40
Rp41
(I1
(I3
I3
tp42
g18
I00
S'\xa8\xfc\xfa\xe2/~T@3\x11\xf0\x00\xc5SB@\xa0p\xdczzSR\xc03\x11\xf0\x00\xc5SB@\x8e\x17HCdw0@9K\x8d\xae\x8ew@\xc0\xa0p\xdczzSR\xc09K\x8d\xae\x8ew@\xc0Iv\\\x12xwP@'
p43
tp44
bsS'njev'
p45
I17
sS'nit'
p46
I40
stp47
Rp48
.