ccopy_reg
_reconstructor
p0
(cscipy.optimize.optimize
OptimizeResult
p1
c__builtin__
dict
p2
(dp3
S'status'
p4
I0
sS'success'
p5
I01
sS'jac'
p6
cnumpy.core.multiarray
_reconstruct
p7
(cnumpy
ndarray
p8
(I0
tp9
S'b'
p10
tp11
Rp12
(I1
(I3
tp13
cnumpy
dtype
p14
(S'f8'
p15
I0
I1
tp16
Rp17
(I3
S'<'
p18
NNNI-1
I-1
I0
tp19
bI00
S'\xa2pP\x91\x8d\xc9#\xbf\xfc\x1cO:\x7f\x04\x16\xbf\xe0\x07F?\x91\x05\x1e?'
p20
tp21
bsS'nfev'
p22
I375
sS'fun'
p23
F0.428621645141832
sS'x'
p24
g7
(g8
(I0
tp25
g10
tp26
Rp27
(I1
(I3
tp28
g17
I00
S"\xb1PG\x855O\xf5\xbf|\xc57\xf0\xe9U\x1f@\xf4\xb2's\xfd\xf5\x10@"
p29
tp30
bsS'message'
p31
S'Optimization terminated successfully.'
p32
sS'nhev'
p33
I332
sS'njev'
p34
I699
stp35
Rp36
.