ccopy_reg
_reconstructor
p0
(cscipy.optimize.optimize
OptimizeResult
p1
c__builtin__
dict
p2
(dp3
S'status'
p4
I0
sS'nhev'
p5
I15
sS'success'
p6
I01
sS'jac'
p7
cnumpy.core.multiarray
_reconstruct
p8
(cnumpy
ndarray
p9
(I0
tp10
S'b'
p11
tp12
Rp13
(I1
(I3
tp14
cnumpy
dtype
p15
(S'f8'
p16
I0
I1
tp17
Rp18
(I3
S'<'
p19
NNNI-1
I-1
I0
tp20
bI00
S'`\xc9aHj\x8c\xf9>\xba\xbagb\xa5\xad\xf5>+#\xa6U\x84\x00\x05?'
p21
tp22
bsS'nfev'
p23
I21
sS'fun'
p24
cnumpy.core.multiarray
scalar
p25
(g18
S'\xa8\x00,9\x92n\xdb?'
p26
tp27
Rp28
sS'x'
p29
g8
(g9
(I0
tp30
g11
tp31
Rp32
(I1
(I3
tp33
g18
I00
S'TK\xe5\xbfFR\xf5\xbf\xed\xd3\xf1v\x0fP\x18@i#\xbb_o\xe4\n@'
p34
tp35
bsS'message'
p36
S'Optimization terminated successfully.'
p37
sS'hess'
p38
g8
(g9
(I0
tp39
g11
tp40
Rp41
(I1
(I3
I3
tp42
g18
I00
S"\x80\xb0\xf2\x1b\xd3}T@>\x8f\x7f\xa9^SB@\x04\x86\x0e\x8f_SR\xc0>\x8f\x7f\xa9^SB@;\x1bvi\x89w0@1\x1b\xa9\xb1\x08w@\xc0\x04\x86\x0e\x8f_SR\xc01\x1b\xa9\xb1\x08w@\xc0|\xe0J\x8a'wP@"
p43
tp44
bsS'njev'
p45
I16
sS'nit'
p46
I20
stp47
Rp48
.