ccopy_reg
_reconstructor
p0
(cscipy.optimize.optimize
OptimizeResult
p1
c__builtin__
dict
p2
(dp3
S'status'
p4
I0
sS'success'
p5
I01
sS'nfev'
p6
I40
sS'fun'
p7
cnumpy.core.multiarray
scalar
p8
(cnumpy
dtype
p9
(S'f8'
p10
I0
I1
tp11
Rp12
(I3
S'<'
p13
NNNI-1
I-1
I0
tp14
bS'\x0c\x0bz=\x8bn\xdb?'
p15
tp16
Rp17
sS'x'
p18
cnumpy.core.multiarray
_reconstruct
p19
(cnumpy
ndarray
p20
(I0
tp21
S'b'
p22
tp23
Rp24
(I1
(I3
tp25
g12
I00
S'\x01\x80\xf2k\nQ\xf5\xbf{44duT\x1e@\x8cr\xde\x80\xc0t\x10@'
p26
tp27
bsS'message'
p28
S'CONVERGENCE: REL_REDUCTION_OF_F_<=_FACTR*EPSMCH'
p29
sS'jac'
p30
g19
(g20
(I0
tp31
g22
tp32
Rp33
(I1
(I3
tp34
g12
I00
S'W\xbf\x8fX\x8df\x13\xbf\x00g\x1bZ\x1d%\xa6>&\x13\r\xfd\x98\x8c\x03?'
p35
tp36
bsS'nit'
p37
I17
stp38
Rp39
.