ccopy_reg
_reconstructor
p0
(cscipy.optimize.optimize
OptimizeResult
p1
c__builtin__
dict
p2
(dp3
S'nfev'
p4
I1271
sS'success'
p5
I01
sS'fun'
p6
cnumpy.core.multiarray
scalar
p7
(cnumpy
dtype
p8
(S'f8'
p9
I0
I1
tp10
Rp11
(I3
S'<'
p12
NNNI-1
I-1
I0
tp13
bS'\x8f\xc4\x85\x82\xb7n\xdb?'
p14
tp15
Rp16
sS'x'
p17
cnumpy.core.multiarray
_reconstruct
p18
(cnumpy
ndarray
p19
(I0
tp20
S'b'
p21
tp22
Rp23
(I1
(I3
tp24
g11
I00
S'\xb6\xc9\xb1\x88\xed3\xf5\xbf\xe4\x02?E|\xd9\x1c@5\xd8\xb3zv~\x0f@'
p25
tp26
bsS'message'
p27
S'Optimization terminated successfully.'
p28
sS'nit'
p29
I22
stp30
Rp31
.