ccopy_reg
_reconstructor
p0
(cscipy.optimize.optimize
OptimizeResult
p1
c__builtin__
dict
p2
(dp3
S'status'
p4
I3
sS'nhev'
p5
I1
sS'success'
p6
I00
sS'jac'
p7
cnumpy.core.multiarray
_reconstruct
p8
(cnumpy
ndarray
p9
(I0
tp10
S'b'
p11
tp12
Rp13
(I1
(I3
tp14
cnumpy
dtype
p15
(S'f8'
p16
I0
I1
tp17
Rp18
(I3
S'<'
p19
NNNI-1
I-1
I0
tp20
bI00
S'\xc5"^\x86\xa1\xc6C@\xdb:\x12\xfa#Q3@L?i\xa6\xd4PC\xc0'
p21
tp22
bsS'nfev'
p23
I1
sS'fun'
p24
cnumpy.core.multiarray
scalar
p25
(g18
S'L\x92\xca\x04"bQ@'
p26
tp27
Rp28
sS'x'
p29
g8
(g9
(I0
tp30
g11
tp31
Rp32
(I1
(I3
tp33
g18
I00
S'P\x87\x81P\x14\xd1\xe2?\xe6_5H\xb3\x8f!@\x8a&\x8c\xeew\x1d\x15@'
p34
tp35
bsS'message'
p36
S'A linalg error occurred, such as a non-psd Hessian.'
p37
sS'hess'
p38
g8
(g9
(I0
tp39
g11
tp40
Rp41
(I1
(I3
I3
tp42
g18
I00
S'\xc0?\x0cgp\x98]@1wt\x04\x02\x0bE\xc0dm\x86{\x18\x06U@1wt\x04\x02\x0bE\xc0\xa3K\x00e3\x175\xc0\x08\x9fT@\xf5\x16E@dm\x86{\x18\x06U@\x08\x9fT@\xf5\x16E@\x86d\xc3\xca\x0e\x18U\xc0'
p43
tp44
bsS'njev'
p45
I1
sS'nit'
p46
I0
stp47
Rp48
.