ccopy_reg
_reconstructor
p0
(cscipy.optimize.optimize
OptimizeResult
p1
c__builtin__
dict
p2
(dp3
S'status'
p4
I2
sS'success'
p5
I00
sS'jac'
p6
cnumpy.core.multiarray
_reconstruct
p7
(cnumpy
ndarray
p8
(I0
tp9
S'b'
p10
tp11
Rp12
(I1
(I3
tp13
cnumpy
dtype
p14
(S'f8'
p15
I0
I1
tp16
Rp17
(I3
S'<'
p18
NNNI-1
I-1
I0
tp19
bI00
S'\xa1\x12m\xd16\xce\x9e?2\xe9\x90\x8f\xba\x15\x86?\\/lH\x7f\x19\x96\xbf'
p20
tp21
bsS'nfev'
p22
I39
sS'fun'
p23
F0.42868037959563204
sS'x'
p24
g7
(g8
(I0
tp25
g10
tp26
Rp27
(I1
(I3
tp28
g17
I00
S'\x04x\x96h\xe7\n\xf5\xbf4\xb9@#[\xe4\x1b@ \xfc\xcf\xf1\xb0\x9f\x0e@'
p29
tp30
bsS'message'
p31
S'Desired error not necessarily achieved due to precision loss.'
p32
sS'njev'
p33
I27
stp34
Rp35
.