ccopy_reg
_reconstructor
p0
(cscipy.optimize.optimize
OptimizeResult
p1
c__builtin__
dict
p2
(dp3
S'status'
p4
I0
sS'success'
p5
I01
sS'jac'
p6
cnumpy.core.multiarray
_reconstruct
p7
(cnumpy
ndarray
p8
(I0
tp9
S'b'
p10
tp11
Rp12
(I1
(I3
tp13
cnumpy
dtype
p14
(S'f8'
p15
I0
I1
tp16
Rp17
(I3
S'<'
p18
NNNI-1
I-1
I0
tp19
bI00
S'u\xac.j\x86L\x1f\xbf\x1b\x8c\xd4\x86\xf1`\x10?\xa3\xd4\xfb\x8dcW\x1b\xbf'
p20
tp21
bsS'nfev'
p22
I43
sS'fun'
p23
F0.42862173610649273
sS'x'
p24
g7
(g8
(I0
tp25
g10
tp26
Rp27
(I1
(I3
tp28
g17
I00
S'\xec\xd7l\x83BS\xf5\xbfH?\xfbO\xf1\xb3 @c\xbe\xc3J\xd8\xfd\x11@'
p29
tp30
bsS'message'
p31
S'Optimization terminated successfully.'
p32
sS'nhev'
p33
I20
sS'njev'
p34
I60
stp35
Rp36
.