ccopy_reg
_reconstructor
p0
(cscipy.optimize.optimize
OptimizeResult
p1
c__builtin__
dict
p2
(dp3
S'status'
p4
I2
sS'success'
p5
I01
sS'nfev'
p6
I53
sS'fun'
p7
cnumpy.core.multiarray
scalar
p8
(cnumpy
dtype
p9
(S'f8'
p10
I0
I1
tp11
Rp12
(I3
S'<'
p13
NNNI-1
I-1
I0
tp14
bS'\x15\x95\xa7\t\x9b\x83\xe1?'
p15
tp16
Rp17
sS'x'
p18
cnumpy.core.multiarray
_reconstruct
p19
(cnumpy
ndarray
p20
(I0
tp21
S'b'
p22
tp23
Rp24
(I1
(I3
tp25
g12
I00
S'\xc4%\x1c\xb7\xe0<\xfd\xbf\xd2xn\x1cU\r\x1a@\xdd\r\xde\x1cp\xc3\x07@'
p26
tp27
bsS'message'
p28
S'Converged (|x_n-x_(n-1)| ~= 0)'
p29
sS'jac'
p30
g19
(g20
(I0
tp31
g22
tp32
Rp33
(I1
(I3
tp34
g12
I00
S",'\xf7\xfc\xbf\x8a\xd2\xbf\xbd8T\xae;\xe9\xc2?\xb5\x8d$\x8e\xa9\xe9\xd2\xbf"
p35
tp36
bsS'nit'
p37
I11
stp38
Rp39
.