ccopy_reg
_reconstructor
p0
(cscipy.optimize.optimize
OptimizeResult
p1
c__builtin__
dict
p2
(dp3
S'nfev'
p4
I1238
sS'success'
p5
I01
sS'fun'
p6
cnumpy.core.multiarray
scalar
p7
(cnumpy
dtype
p8
(S'f8'
p9
I0
I1
tp10
Rp11
(I3
S'<'
p12
NNNI-1
I-1
I0
tp13
bS'\xc9\xd3b\xb8\x08o\xdb?'
p14
tp15
Rp16
sS'x'
p17
cnumpy.core.multiarray
_reconstruct
p18
(cnumpy
ndarray
p19
(I0
tp20
S'b'
p21
tp22
Rp23
(I1
(I3
tp24
g11
I00
S'c\xf7\xf5y\xbb\x83\xf5\xbf\x1c\xa5\xb6\x9eEC\x1e@\xe5~\xdf\x81\t^\x10@'
p25
tp26
bsS'message'
p27
S'Optimization terminated successfully.'
p28
sS'jac'
p29
g18
(g19
(I0
tp30
g21
tp31
Rp32
(I1
(I3
tp33
g11
I00
S'\xa8m\x85\x05\xfc\xa02\xc0I\xc5\xfd\xcc\x85+[@\x8c\x96\x1ei\xdc\xeaP@'
p34
tp35
bsS'nit'
p36
I21
stp37
Rp38
.