ccopy_reg
_reconstructor
p0
(cscipy.optimize.optimize
OptimizeResult
p1
c__builtin__
dict
p2
(dp3
S'status'
p4
I0
sS'nhev'
p5
I15
sS'success'
p6
I01
sS'jac'
p7
cnumpy.core.multiarray
_reconstruct
p8
(cnumpy
ndarray
p9
(I0
tp10
S'b'
p11
tp12
Rp13
(I1
(I3
tp14
cnumpy
dtype
p15
(S'f8'
p16
I0
I1
tp17
Rp18
(I3
S'<'
p19
NNNI-1
I-1
I0
tp20
bI00
S'\xfaW\xe6r&\xc9\x17?\x19?v\xd6\xde=\x04?\xa0\xc7\xfbN\x94\xaa\xec\xbe'
p21
tp22
bsS'nfev'
p23
I21
sS'fun'
p24
cnumpy.core.multiarray
scalar
p25
(g18
S'\xd0\xe6\xa7p\x95n\xdb?'
p26
tp27
Rp28
sS'x'
p29
g8
(g9
(I0
tp30
g11
tp31
Rp32
(I1
(I3
tp33
g18
I00
S'\x9c\xb0(4\xabQ\xf5\xbf\xe7\x11\xd7o\xa6R\x17@K\xf4\xba\x83^\xe7\t@'
p34
tp35
bsS'message'
p36
S'Optimization terminated successfully.'
p37
sS'hess'
p38
g8
(g9
(I0
tp39
g11
tp40
Rp41
(I1
(I3
I3
tp42
g18
I00
S'\xa9\x11Dq\xd1}T@\xce\xffk\xee=SB@\xfa;\x01\xa9eSR\xc0\xce\xffk\xee=SB@g\xf1\xef\x93*w0@\x1cn\x8f\x81cw@\xc0\xfa;\x01\xa9eSR\xc0\x1cn\x8f\x81cw@\xc0qntIGwP@'
p43
tp44
bsS'njev'
p45
I16
sS'nit'
p46
I20
stp47
Rp48
.