ccopy_reg
_reconstructor
p0
(cscipy.optimize.optimize
OptimizeResult
p1
c__builtin__
dict
p2
(dp3
S'status'
p4
I0
sS'nfev'
p5
I147
sS'success'
p6
I01
sS'fun'
p7
cnumpy.core.multiarray
scalar
p8
(cnumpy
dtype
p9
(S'f8'
p10
I0
I1
tp11
Rp12
(I3
S'<'
p13
NNNI-1
I-1
I0
tp14
bS'\xb2\x8e\x18\x9f\x8bn\xdb?'
p15
tp16
Rp17
sS'x'
p18
cnumpy.core.multiarray
_reconstruct
p19
(cnumpy
ndarray
p20
(I0
tp21
S'b'
p22
tp23
Rp24
(I1
(I3
tp25
g12
I00
S'HV\xe7l\xfcR\xf5\xbf\x8c\x08\x1e\xfe\x02\xa0\x1b@~6\x1d\x8c\xed3\x0e@'
p26
tp27
bsS'message'
p28
S'Optimization terminated successfully.'
p29
sS'nit'
p30
I70
stp31
Rp32
.