ccopy_reg
_reconstructor
p0
(cscipy.optimize.optimize
OptimizeResult
p1
c__builtin__
dict
p2
(dp3
S'status'
p4
I0
sS'nhev'
p5
I11
sS'success'
p6
I01
sS'jac'
p7
cnumpy.core.multiarray
_reconstruct
p8
(cnumpy
ndarray
p9
(I0
tp10
S'b'
p11
tp12
Rp13
(I1
(I3
tp14
cnumpy
dtype
p15
(S'f8'
p16
I0
I1
tp17
Rp18
(I3
S'<'
p19
NNNI-1
I-1
I0
tp20
bI00
S'v8\x93\x12\xca\xe3\x12?!\x0e\x9aTF~\xf9>d\xce\x8a\xbf\x0b\x1a\x10?'
p21
tp22
bsS'nfev'
p23
I28
sS'fun'
p24
cnumpy.core.multiarray
scalar
p25
(g18
S'\\\x04\xc2\x15\x8an\xdb?'
p26
tp27
Rp28
sS'x'
p29
g8
(g9
(I0
tp30
g11
tp31
Rp32
(I1
(I3
tp33
g18
I00
S'\xdeV\x05W#O\xf5\xbf)\x972Sh\xeb!@\xd9\xf4\xa1[u6\x13@'
p34
tp35
bsS'message'
p36
S'Optimization terminated successfully.'
p37
sS'hess'
p38
g8
(g9
(I0
tp39
g11
tp40
Rp41
(I1
(I3
I3
tp42
g18
I00
S'~C\x1f\x831~T@]y\xce\x08gTB@(\x1d\xde\xa1CTR\xc0]y\xce\x08gTB@\xe1Y\x91-Oy0@\xc6\xf1\xa4ogx@\xc0(\x1d\xde\xa1CTR\xc0\xc6\xf1\xa4ogx@\xc0\x1aC\xd0#hyP@'
p43
tp44
bsS'njev'
p45
I12
sS'nit'
p46
I27
stp47
Rp48
.